; ModuleID = 'mm.bc'
source_filename = "llvm-link"
target datalayout = "e-m:e-i64:64-f80:128-n8:16:32:64-S128"
target triple = "x86_64-unknown-linux-gnu"

%"class.std::ios_base::Init" = type { i8 }
%"class.std::basic_ostream" = type { i32 (...)**, %"class.std::basic_ios" }
%"class.std::basic_ios" = type { %"class.std::ios_base", %"class.std::basic_ostream"*, i8, i8, %"class.std::basic_streambuf"*, %"class.std::ctype"*, %"class.std::num_put"*, %"class.std::num_put"* }
%"class.std::ios_base" = type { i32 (...)**, i64, i64, i32, i32, i32, %"struct.std::ios_base::_Callback_list"*, %"struct.std::ios_base::_Words", [8 x %"struct.std::ios_base::_Words"], i32, %"struct.std::ios_base::_Words"*, %"class.std::locale" }
%"struct.std::ios_base::_Callback_list" = type { %"struct.std::ios_base::_Callback_list"*, void (i32, %"class.std::ios_base"*, i32)*, i32, i32 }
%"struct.std::ios_base::_Words" = type { i8*, i64 }
%"class.std::locale" = type { %"class.std::locale::_Impl"* }
%"class.std::locale::_Impl" = type { i32, %"class.std::locale::facet"**, i64, %"class.std::locale::facet"**, i8** }
%"class.std::locale::facet" = type <{ i32 (...)**, i32, [4 x i8] }>
%"class.std::basic_streambuf" = type { i32 (...)**, i8*, i8*, i8*, i8*, i8*, i8*, %"class.std::locale" }
%"class.std::ctype" = type <{ %"class.std::locale::facet.base", [4 x i8], %struct.__locale_struct*, i8, [7 x i8], i32*, i32*, i16*, i8, [256 x i8], [256 x i8], i8, [6 x i8] }>
%"class.std::locale::facet.base" = type <{ i32 (...)**, i32 }>
%struct.__locale_struct = type { [13 x %struct.__locale_data*], i16*, i32*, i32*, [13 x i8*] }
%struct.__locale_data = type opaque
%"class.std::num_put" = type { %"class.std::locale::facet.base", [4 x i8] }
%struct._IO_FILE = type { i32, i8*, i8*, i8*, i8*, i8*, i8*, i8*, i8*, i8*, i8*, i8*, %struct._IO_marker*, %struct._IO_FILE*, i32, i32, i64, i16, i8, [1 x i8], i8*, i64, i8*, i8*, i8*, i8*, i64, i32, [20 x i8] }
%struct._IO_marker = type { %struct._IO_marker*, %struct._IO_FILE*, i32 }
%struct.timeval = type { i64, i64 }
%struct.timezone = type { i32, i32 }
%"class.std::__cxx11::basic_string" = type { %"struct.std::__cxx11::basic_string<char, std::char_traits<char>, std::allocator<char> >::_Alloc_hider", i64, %union.anon }
%"struct.std::__cxx11::basic_string<char, std::char_traits<char>, std::allocator<char> >::_Alloc_hider" = type { i8* }
%union.anon = type { i64, [8 x i8] }
%"class.std::basic_fstream" = type { %"class.std::basic_iostream.base", %"class.std::basic_filebuf", %"class.std::basic_ios" }
%"class.std::basic_iostream.base" = type { %"class.std::basic_istream.base", %"class.std::basic_ostream.base" }
%"class.std::basic_istream.base" = type { i32 (...)**, i64 }
%"class.std::basic_ostream.base" = type { i32 (...)** }
%"class.std::basic_filebuf" = type { %"class.std::basic_streambuf", %union.pthread_mutex_t, %"class.std::__basic_file", i32, %struct.__mbstate_t, %struct.__mbstate_t, %struct.__mbstate_t, i8*, i64, i8, i8, i8, i8, i8*, i8*, i8, %"class.std::codecvt"*, i8*, i64, i8*, i8* }
%union.pthread_mutex_t = type { %"struct.(anonymous union)::__pthread_mutex_s" }
%"struct.(anonymous union)::__pthread_mutex_s" = type { i32, i32, i32, i32, i32, i16, i16, %struct.__pthread_internal_list }
%struct.__pthread_internal_list = type { %struct.__pthread_internal_list*, %struct.__pthread_internal_list* }
%"class.std::__basic_file" = type <{ %struct._IO_FILE*, i8, [7 x i8] }>
%struct.__mbstate_t = type { i32, %union.anon.0 }
%union.anon.0 = type { i32 }
%"class.std::codecvt" = type { %"class.std::__codecvt_abstract_base.base", %struct.__locale_struct* }
%"class.std::__codecvt_abstract_base.base" = type { %"class.std::locale::facet.base" }

$_Z5getFDPKcS0_ = comdat any

$_Z14updateFIParamsv = comdat any

$_Z9checkMaskPvi = comdat any

$_Z13matchDynFSIdxv = comdat any

$_Z7flipBitPvj8DataType6FIAlgo = comdat any

$_Z11writeFIDataPKcPvS1_S1_8DataTypeS0_ = comdat any

$_Z9getBitPosj8DataType6FIAlgo = comdat any

$_Z12getBitPosCBRj = comdat any

$_Z12getBitPosABR8DataType = comdat any

$_Z14getIntervalIdxx = comdat any

$_Z15updateTimeStampv = comdat any

$_Z18getStrFieldByIndexPcPKci = comdat any

$_Z13processParamsPKcS0_ = comdat any

$_Z11updateFSIdxv = comdat any

$_Z11file_existsPKc = comdat any

$_Z11printParamsv = comdat any

$_Z11checkParamsv = comdat any

$_Z12gen64bitRandv = comdat any

@dynFSCount = global i64 0, align 8
@detectCounter = global i64 0, align 8
@dynFSCounter = global i64 0, align 8
@intvsz = global i64 0, align 8
@intvCount = global i64 0, align 8
@dynFSIdx = global i64* null, align 8
@fsIntTy1 = global i64 0, align 8
@fsIntTy8 = global i64 0, align 8
@fsIntTy16 = global i64 0, align 8
@fsIntTy32 = global i64 0, align 8
@fsIntTy64 = global i64 0, align 8
@fsFloatTy = global i64 0, align 8
@fsDoubleTy = global i64 0, align 8
@fiIntTy1 = global i64 0, align 8
@fiIntTy8 = global i64 0, align 8
@fiIntTy16 = global i64 0, align 8
@fiIntTy32 = global i64 0, align 8
@fiIntTy64 = global i64 0, align 8
@fiFloatTy = global i64 0, align 8
@fiDoubleTy = global i64 0, align 8
@fialg = global i32 3, align 4
@fibr = global i32 9, align 4
@fid = global i32 2, align 4
@ef = global i64 -1, align 8
@tf = global i64 -1, align 8
@fidatardflag = global i32 0, align 4
@bl = global i32 -1, align 4
@bu = global i32 -1, align 4
@pfs = global i32 -1, align 4
@fiParams = global i8* getelementptr inbounds ([6 x i8], [6 x i8]* @.str, i32 0, i32 0), align 8
@.str = private unnamed_addr constant [6 x i8] c"fi.in\00", align 1
@fiStat = global i8* getelementptr inbounds ([7 x i8], [7 x i8]* @.str.1, i32 0, i32 0), align 8
@.str.1 = private unnamed_addr constant [7 x i8] c"fi.csv\00", align 1
@fiCount = global i8* getelementptr inbounds ([7 x i8], [7 x i8]* @.str.2, i32 0, i32 0), align 8
@.str.2 = private unnamed_addr constant [7 x i8] c"fi.out\00", align 1
@fsStat = global i8* getelementptr inbounds ([7 x i8], [7 x i8]* @.str.3, i32 0, i32 0), align 8
@.str.3 = private unnamed_addr constant [7 x i8] c"fs.out\00", align 1
@execKey = global i64 0, align 8
@.str.4 = private unnamed_addr constant [2 x i8] c"w\00", align 1
@.str.5 = private unnamed_addr constant [22 x i8] c"fault site count:%lld\00", align 1
@.str.6 = private unnamed_addr constant [57 x i8] c"\0A----------------Fault Site Statistics------------------\00", align 1
@.str.7 = private unnamed_addr constant [42 x i8] c"\0ATotal # of fault sites enumerated : %lld\00", align 1
@.str.8 = private unnamed_addr constant [50 x i8] c"\0AFurther sub-categorization of fault sites below:\00", align 1
@.str.9 = private unnamed_addr constant [43 x i8] c"\0ATotal # of Data fault sites IntTy1 : %lld\00", align 1
@.str.10 = private unnamed_addr constant [44 x i8] c"\0ATotal # of Data fault sites IntTy16 : %lld\00", align 1
@.str.11 = private unnamed_addr constant [44 x i8] c"\0ATotal # of Data fault sites IntTy32 : %lld\00", align 1
@.str.12 = private unnamed_addr constant [44 x i8] c"\0ATotal # of Data fault sites IntTy64 : %lld\00", align 1
@.str.13 = private unnamed_addr constant [44 x i8] c"\0ATotal # of Data fault sites FloatTy : %lld\00", align 1
@.str.14 = private unnamed_addr constant [45 x i8] c"\0ATotal # of Data fault sites DoubleTy : %lld\00", align 1
@.str.15 = private unnamed_addr constant [63 x i8] c"\0A------------------------------------------------------------\0A\00", align 1
@.str.30 = private unnamed_addr constant [34 x i8] c"\0AError:Coudn't find the file: %s\0A\00", align 1
@.str.16 = private unnamed_addr constant [27 x i8] c"fault injection count:%lld\00", align 1
@.str.17 = private unnamed_addr constant [15 x i8] c"\0Atimestamp:%lu\00", align 1
@.str.18 = private unnamed_addr constant [28 x i8] c"\0Aerror detection count:%lld\00", align 1
@.str.19 = private unnamed_addr constant [62 x i8] c"\0A----------------Fault Injection Statistics------------------\00", align 1
@.str.20 = private unnamed_addr constant [40 x i8] c"\0ATotal # of fault injection done : %lld\00", align 1
@.str.21 = private unnamed_addr constant [55 x i8] c"\0ATotal # of Data faults injected of type IntTy1 : %lld\00", align 1
@.str.22 = private unnamed_addr constant [56 x i8] c"\0ATotal # of Data faults injected of type IntTy16 : %lld\00", align 1
@.str.23 = private unnamed_addr constant [56 x i8] c"\0ATotal # of Data faults injected of type IntTy32 : %lld\00", align 1
@.str.24 = private unnamed_addr constant [56 x i8] c"\0ATotal # of Data faults injected of type IntTy64 : %lld\00", align 1
@.str.25 = private unnamed_addr constant [56 x i8] c"\0ATotal # of Data faults injected of type FloatTy : %lld\00", align 1
@.str.26 = private unnamed_addr constant [57 x i8] c"\0ATotal # of Data faults injected of type DoubleTy : %lld\00", align 1
@.str.27 = private unnamed_addr constant [35 x i8] c"\0ATotal # of errors detected : %lld\00", align 1
@.str.28 = private unnamed_addr constant [2 x i8] c"a\00", align 1
@.str.75 = private unnamed_addr constant [6 x i8] c"Time;\00", align 1
@.str.76 = private unnamed_addr constant [5 x i8] c"%ld;\00", align 1
@.str.77 = private unnamed_addr constant [2 x i8] c"\22\00", align 1
@.str.78 = private unnamed_addr constant [3 x i8] c"\22\00\00", align 1
@.str.79 = private unnamed_addr constant [4 x i8] c"%s;\00", align 1
@.str.80 = private unnamed_addr constant [4 x i8] c"%d;\00", align 1
@.str.81 = private unnamed_addr constant [4 x i8] c"%c;\00", align 1
@.str.82 = private unnamed_addr constant [6 x i8] c"%lld;\00", align 1
@.str.83 = private unnamed_addr constant [4 x i8] c"%f;\00", align 1
@.str.84 = private unnamed_addr constant [5 x i8] c"%lf;\00", align 1
@.str.85 = private unnamed_addr constant [4 x i8] c"%s\0A\00", align 1
@.str.86 = private unnamed_addr constant [4 x i8] c"%d\0A\00", align 1
@.str.74 = private unnamed_addr constant [45 x i8] c"\0AError: Invalid value provided for FI Algo!\0A\00", align 1
@.str.31 = private unnamed_addr constant [2 x i8] c"r\00", align 1
@.str.32 = private unnamed_addr constant [43 x i8] c"\0AError:Coudn't find fi param file \22fi.in\22\0A\00", align 1
@.str.33 = private unnamed_addr constant [3 x i8] c":\0A\00", align 1
@.str.34 = private unnamed_addr constant [48 x i8] c"\0AError:memory allocation failed for dynFSIdx!!\0A\00", align 1
@.str.35 = private unnamed_addr constant [11 x i8] c"Instr_Name\00", align 1
@.str.36 = private unnamed_addr constant [15 x i8] c"Original_Value\00", align 1
@.str.37 = private unnamed_addr constant [16 x i8] c"Corrupted_Value\00", align 1
@.str.38 = private unnamed_addr constant [13 x i8] c"Bit_Position\00", align 1
@.str.67 = private unnamed_addr constant [57 x i8] c"fialg!=FI_ERROR && \22Invalid fault injection algorithm!!\22\00", align 1
@.str.68 = private unnamed_addr constant [57 x i8] c"/home/vcsharma/apps/tools/vulfi/master/runtime/Corrupt.C\00", align 1
@__PRETTY_FUNCTION__._Z11checkParamsv = private unnamed_addr constant [19 x i8] c"void checkParams()\00", align 1
@.str.69 = private unnamed_addr constant [43 x i8] c"fibr!=FIBR_ERROR && \22Invalid byte range!!\22\00", align 1
@.str.70 = private unnamed_addr constant [45 x i8] c"fid!=FID_ERROR && \22Invalid byte direction!!\22\00", align 1
@.str.71 = private unnamed_addr constant [71 x i8] c"((bu>=bl && bu<=63 && bl >=0)||fialg!=FI_ABR) && \22Invalid bit range!!\22\00", align 1
@.str.72 = private unnamed_addr constant [62 x i8] c"ef<=tf&&ef>0&&tf>0 && \22Invalid fault injection probability!!\22\00", align 1
@.str.73 = private unnamed_addr constant [51 x i8] c"(pfs==0||pfs==1) && \22Invalid value for pfs flag!!\22\00", align 1
@.str.61 = private unnamed_addr constant [31 x i8] c"\0AFault injection algorithm: %d\00", align 1
@.str.62 = private unnamed_addr constant [16 x i8] c"\0AByte range: %d\00", align 1
@.str.63 = private unnamed_addr constant [20 x i8] c"\0AByte direction: %d\00", align 1
@.str.64 = private unnamed_addr constant [24 x i8] c"\0AProbability: %lld/%lld\00", align 1
@.str.65 = private unnamed_addr constant [54 x i8] c"\0ABit range (only applicable for fi algo ABR): [%d-%d]\00", align 1
@.str.66 = private unnamed_addr constant [35 x i8] c"\0APrint Fault Site Status Flag: %d\0A\00", align 1
@.str.39 = private unnamed_addr constant [4 x i8] c"fia\00", align 1
@.str.40 = private unnamed_addr constant [4 x i8] c"CBR\00", align 1
@.str.41 = private unnamed_addr constant [4 x i8] c"ABR\00", align 1
@.str.42 = private unnamed_addr constant [4 x i8] c"MSK\00", align 1
@.str.43 = private unnamed_addr constant [4 x i8] c"fib\00", align 1
@.str.44 = private unnamed_addr constant [2 x i8] c"1\00", align 1
@.str.45 = private unnamed_addr constant [2 x i8] c"2\00", align 1
@.str.46 = private unnamed_addr constant [2 x i8] c"3\00", align 1
@.str.47 = private unnamed_addr constant [2 x i8] c"4\00", align 1
@.str.48 = private unnamed_addr constant [2 x i8] c"5\00", align 1
@.str.49 = private unnamed_addr constant [2 x i8] c"6\00", align 1
@.str.50 = private unnamed_addr constant [2 x i8] c"7\00", align 1
@.str.51 = private unnamed_addr constant [2 x i8] c"8\00", align 1
@.str.52 = private unnamed_addr constant [4 x i8] c"fid\00", align 1
@.str.53 = private unnamed_addr constant [4 x i8] c"LSB\00", align 1
@.str.54 = private unnamed_addr constant [4 x i8] c"MSB\00", align 1
@.str.55 = private unnamed_addr constant [4 x i8] c"fiu\00", align 1
@.str.56 = private unnamed_addr constant [4 x i8] c"fil\00", align 1
@.str.57 = private unnamed_addr constant [3 x i8] c"pn\00", align 1
@.str.58 = private unnamed_addr constant [3 x i8] c"pd\00", align 1
@.str.59 = private unnamed_addr constant [4 x i8] c"pfs\00", align 1
@.str.60 = private unnamed_addr constant [3 x i8] c"fc\00", align 1
@.str.29 = private unnamed_addr constant [15 x i8] c"%lld %lld %lf\0A\00", align 1
@llvm.global_ctors = appending global [1 x { i32, void ()*, i8* }] [{ i32, void ()*, i8* } { i32 65535, void ()* @_GLOBAL__sub_I_mm.cpp, i8* null }]
@_ZStL8__ioinit = internal global %"class.std::ios_base::Init" zeroinitializer, align 1
@__dso_handle = external global i8
@_ZSt4cout = external global %"class.std::basic_ostream", align 8
@.str.87 = private unnamed_addr constant [2 x i8] c"\0A\00", align 1
@.str.1.88 = private unnamed_addr constant [3 x i8] c"| \00", align 1
@.str.2.89 = private unnamed_addr constant [2 x i8] c" \00", align 1
@.str.3.90 = private unnamed_addr constant [2 x i8] c"|\00", align 1
@.str.4.91 = private unnamed_addr constant [32 x i8] c"\0AERROR: Insufficient arguments!\00", align 1
@.str.5.92 = private unnamed_addr constant [46 x i8] c"\0AUSAGE: <bin name> <array size> <file name>\0A\0A\00", align 1
@.str.6.93 = private unnamed_addr constant [23 x i8] c"\0AINFO: Array size is: \00", align 1
@.str.7.94 = private unnamed_addr constant [2 x i8] c"x\00", align 1
@.str.8.95 = private unnamed_addr constant [42 x i8] c"\0AINFO: Allocating memory for the arrays..\00", align 1
@.str.9.96 = private unnamed_addr constant [29 x i8] c"\0AINFO: Initializing arrays..\00", align 1
@.str.10.97 = private unnamed_addr constant [42 x i8] c"\0AINFO: Performing matrix multiplication..\00", align 1
@.str.11.98 = private unnamed_addr constant [26 x i8] c"\0AINFO: Writing result to \00", align 1
@.str.12.99 = private unnamed_addr constant [3 x i8] c"..\00", align 1
@.str.13.100 = private unnamed_addr constant [30 x i8] c"\0AINFO: Destroying resources..\00", align 1
@.str.14.101 = private unnamed_addr constant [29 x i8] c"\0AINFO: Finished execution!\0A\0A\00", align 1

; Function Attrs: uwtable
define i32 @printFaultSitesData() #0 !dbg !60 {
  %1 = alloca i32, align 4
  %2 = alloca %struct._IO_FILE*, align 8
  %3 = alloca i64, align 8
  call void @llvm.dbg.declare(metadata %struct._IO_FILE** %2, metadata !176, metadata !177), !dbg !178
  call void @llvm.dbg.declare(metadata i64* %3, metadata !179, metadata !177), !dbg !180
  %4 = load i32, i32* @pfs, align 4, !dbg !181
  %5 = icmp eq i32 %4, 0, !dbg !183
  br i1 %5, label %9, label %6, !dbg !184

; <label>:6:                                      ; preds = %0
  %7 = load i32, i32* @pfs, align 4, !dbg !185
  %8 = icmp eq i32 %7, -1, !dbg !187
  br i1 %8, label %9, label %10, !dbg !188

; <label>:9:                                      ; preds = %6, %0
  store i32 -1, i32* %1, align 4, !dbg !189
  br label %56, !dbg !189

; <label>:10:                                     ; preds = %6
  %11 = load i64, i64* @fsIntTy1, align 8, !dbg !191
  %12 = load i64, i64* @fsIntTy16, align 8, !dbg !192
  %13 = add nsw i64 %11, %12, !dbg !193
  %14 = load i64, i64* @fsIntTy32, align 8, !dbg !194
  %15 = add nsw i64 %13, %14, !dbg !195
  %16 = load i64, i64* @fsIntTy64, align 8, !dbg !196
  %17 = add nsw i64 %15, %16, !dbg !197
  %18 = load i64, i64* @fsFloatTy, align 8, !dbg !198
  %19 = add nsw i64 %17, %18, !dbg !199
  %20 = load i64, i64* @fsDoubleTy, align 8, !dbg !200
  %21 = add nsw i64 %19, %20, !dbg !201
  store i64 %21, i64* %3, align 8, !dbg !202
  %22 = load i8*, i8** @fsStat, align 8, !dbg !203
  %23 = call %struct._IO_FILE* @_Z5getFDPKcS0_(i8* %22, i8* getelementptr inbounds ([2 x i8], [2 x i8]* @.str.4, i32 0, i32 0)), !dbg !204
  store %struct._IO_FILE* %23, %struct._IO_FILE** %2, align 8, !dbg !205
  %24 = load %struct._IO_FILE*, %struct._IO_FILE** %2, align 8, !dbg !206
  %25 = load i64, i64* %3, align 8, !dbg !207
  %26 = call i32 (%struct._IO_FILE*, i8*, ...) @fprintf(%struct._IO_FILE* %24, i8* getelementptr inbounds ([22 x i8], [22 x i8]* @.str.5, i32 0, i32 0), i64 %25), !dbg !208
  %27 = load %struct._IO_FILE*, %struct._IO_FILE** %2, align 8, !dbg !209
  %28 = icmp ne %struct._IO_FILE* %27, null, !dbg !209
  br i1 %28, label %29, label %32, !dbg !211

; <label>:29:                                     ; preds = %10
  %30 = load %struct._IO_FILE*, %struct._IO_FILE** %2, align 8, !dbg !212
  %31 = call i32 @fclose(%struct._IO_FILE* %30), !dbg !215
  br label %32, !dbg !216

; <label>:32:                                     ; preds = %29, %10
  %33 = load i64*, i64** @dynFSIdx, align 8, !dbg !217
  %34 = icmp ne i64* %33, null, !dbg !217
  br i1 %34, label %35, label %38, !dbg !219

; <label>:35:                                     ; preds = %32
  %36 = load i64*, i64** @dynFSIdx, align 8, !dbg !220
  %37 = bitcast i64* %36 to i8*, !dbg !220
  call void @free(i8* %37) #10, !dbg !222
  store i64* null, i64** @dynFSIdx, align 8, !dbg !223
  br label %38, !dbg !224

; <label>:38:                                     ; preds = %35, %32
  %39 = call i32 (i8*, ...) @printf(i8* getelementptr inbounds ([57 x i8], [57 x i8]* @.str.6, i32 0, i32 0)), !dbg !225
  %40 = load i64, i64* %3, align 8, !dbg !226
  %41 = call i32 (i8*, ...) @printf(i8* getelementptr inbounds ([42 x i8], [42 x i8]* @.str.7, i32 0, i32 0), i64 %40), !dbg !227
  %42 = call i32 (i8*, ...) @printf(i8* getelementptr inbounds ([50 x i8], [50 x i8]* @.str.8, i32 0, i32 0)), !dbg !228
  %43 = load i64, i64* @fsIntTy1, align 8, !dbg !229
  %44 = call i32 (i8*, ...) @printf(i8* getelementptr inbounds ([43 x i8], [43 x i8]* @.str.9, i32 0, i32 0), i64 %43), !dbg !230
  %45 = load i64, i64* @fsIntTy16, align 8, !dbg !231
  %46 = call i32 (i8*, ...) @printf(i8* getelementptr inbounds ([44 x i8], [44 x i8]* @.str.10, i32 0, i32 0), i64 %45), !dbg !232
  %47 = load i64, i64* @fsIntTy32, align 8, !dbg !233
  %48 = call i32 (i8*, ...) @printf(i8* getelementptr inbounds ([44 x i8], [44 x i8]* @.str.11, i32 0, i32 0), i64 %47), !dbg !234
  %49 = load i64, i64* @fsIntTy64, align 8, !dbg !235
  %50 = call i32 (i8*, ...) @printf(i8* getelementptr inbounds ([44 x i8], [44 x i8]* @.str.12, i32 0, i32 0), i64 %49), !dbg !236
  %51 = load i64, i64* @fsFloatTy, align 8, !dbg !237
  %52 = call i32 (i8*, ...) @printf(i8* getelementptr inbounds ([44 x i8], [44 x i8]* @.str.13, i32 0, i32 0), i64 %51), !dbg !238
  %53 = load i64, i64* @fsDoubleTy, align 8, !dbg !239
  %54 = call i32 (i8*, ...) @printf(i8* getelementptr inbounds ([45 x i8], [45 x i8]* @.str.14, i32 0, i32 0), i64 %53), !dbg !240
  %55 = call i32 (i8*, ...) @printf(i8* getelementptr inbounds ([63 x i8], [63 x i8]* @.str.15, i32 0, i32 0)), !dbg !241
  store i32 0, i32* %1, align 4, !dbg !242
  br label %56, !dbg !242

; <label>:56:                                     ; preds = %38, %9
  %57 = load i32, i32* %1, align 4, !dbg !243
  ret i32 %57, !dbg !243
}

; Function Attrs: nounwind readnone
declare void @llvm.dbg.declare(metadata, metadata, metadata) #1

; Function Attrs: inlinehint uwtable
define linkonce_odr %struct._IO_FILE* @_Z5getFDPKcS0_(i8*, i8*) #2 comdat !dbg !90 {
  %3 = alloca i8*, align 8
  %4 = alloca i8*, align 8
  %5 = alloca %struct._IO_FILE*, align 8
  store i8* %0, i8** %3, align 8
  call void @llvm.dbg.declare(metadata i8** %3, metadata !244, metadata !177), !dbg !245
  store i8* %1, i8** %4, align 8
  call void @llvm.dbg.declare(metadata i8** %4, metadata !246, metadata !177), !dbg !247
  call void @llvm.dbg.declare(metadata %struct._IO_FILE** %5, metadata !248, metadata !177), !dbg !249
  %6 = load i8*, i8** %3, align 8, !dbg !250
  %7 = load i8*, i8** %4, align 8, !dbg !251
  %8 = call %struct._IO_FILE* @fopen(i8* %6, i8* %7), !dbg !252
  store %struct._IO_FILE* %8, %struct._IO_FILE** %5, align 8, !dbg !253
  %9 = load %struct._IO_FILE*, %struct._IO_FILE** %5, align 8, !dbg !254
  %10 = icmp eq %struct._IO_FILE* %9, null, !dbg !256
  br i1 %10, label %11, label %14, !dbg !257

; <label>:11:                                     ; preds = %2
  %12 = load i8*, i8** %3, align 8, !dbg !258
  %13 = call i32 (i8*, ...) @printf(i8* getelementptr inbounds ([34 x i8], [34 x i8]* @.str.30, i32 0, i32 0), i8* %12), !dbg !260
  call void @exit(i32 -1) #15, !dbg !261
  unreachable, !dbg !261

; <label>:14:                                     ; preds = %2
  %15 = load %struct._IO_FILE*, %struct._IO_FILE** %5, align 8, !dbg !262
  ret %struct._IO_FILE* %15, !dbg !263
}

declare i32 @fprintf(%struct._IO_FILE*, i8*, ...) #3

declare i32 @fclose(%struct._IO_FILE*) #3

; Function Attrs: nounwind
declare void @free(i8*) #4

declare i32 @printf(i8*, ...) #3

declare %struct._IO_FILE* @fopen(i8*, i8*) #3

; Function Attrs: noreturn nounwind
declare void @exit(i32) #5

; Function Attrs: uwtable
define i32 @printFaultInjectionData() #0 !dbg !64 {
  %1 = alloca i32, align 4
  %2 = alloca %struct._IO_FILE*, align 8
  %3 = alloca i64, align 8
  call void @llvm.dbg.declare(metadata %struct._IO_FILE** %2, metadata !264, metadata !177), !dbg !265
  call void @llvm.dbg.declare(metadata i64* %3, metadata !266, metadata !177), !dbg !267
  %4 = load i32, i32* @pfs, align 4, !dbg !268
  %5 = icmp eq i32 %4, 1, !dbg !270
  br i1 %5, label %9, label %6, !dbg !271

; <label>:6:                                      ; preds = %0
  %7 = load i32, i32* @pfs, align 4, !dbg !272
  %8 = icmp eq i32 %7, -1, !dbg !274
  br i1 %8, label %9, label %10, !dbg !275

; <label>:9:                                      ; preds = %6, %0
  store i32 -1, i32* %1, align 4, !dbg !276
  br label %64, !dbg !276

; <label>:10:                                     ; preds = %6
  %11 = load i64, i64* @fiIntTy1, align 8, !dbg !278
  %12 = load i64, i64* @fiIntTy16, align 8, !dbg !279
  %13 = add nsw i64 %11, %12, !dbg !280
  %14 = load i64, i64* @fiIntTy32, align 8, !dbg !281
  %15 = add nsw i64 %13, %14, !dbg !282
  %16 = load i64, i64* @fiIntTy64, align 8, !dbg !283
  %17 = add nsw i64 %15, %16, !dbg !284
  %18 = load i64, i64* @fiFloatTy, align 8, !dbg !285
  %19 = add nsw i64 %17, %18, !dbg !286
  %20 = load i64, i64* @fiDoubleTy, align 8, !dbg !287
  %21 = add nsw i64 %19, %20, !dbg !288
  store i64 %21, i64* %3, align 8, !dbg !289
  %22 = load i8*, i8** @fiCount, align 8, !dbg !290
  %23 = call %struct._IO_FILE* @_Z5getFDPKcS0_(i8* %22, i8* getelementptr inbounds ([2 x i8], [2 x i8]* @.str.4, i32 0, i32 0)), !dbg !291
  store %struct._IO_FILE* %23, %struct._IO_FILE** %2, align 8, !dbg !292
  %24 = load %struct._IO_FILE*, %struct._IO_FILE** %2, align 8, !dbg !293
  %25 = load i64, i64* %3, align 8, !dbg !294
  %26 = call i32 (%struct._IO_FILE*, i8*, ...) @fprintf(%struct._IO_FILE* %24, i8* getelementptr inbounds ([27 x i8], [27 x i8]* @.str.16, i32 0, i32 0), i64 %25), !dbg !295
  %27 = load %struct._IO_FILE*, %struct._IO_FILE** %2, align 8, !dbg !296
  %28 = load i64, i64* @execKey, align 8, !dbg !297
  %29 = call i32 (%struct._IO_FILE*, i8*, ...) @fprintf(%struct._IO_FILE* %27, i8* getelementptr inbounds ([15 x i8], [15 x i8]* @.str.17, i32 0, i32 0), i64 %28), !dbg !298
  %30 = load %struct._IO_FILE*, %struct._IO_FILE** %2, align 8, !dbg !299
  %31 = load i64, i64* @detectCounter, align 8, !dbg !300
  %32 = call i32 (%struct._IO_FILE*, i8*, ...) @fprintf(%struct._IO_FILE* %30, i8* getelementptr inbounds ([28 x i8], [28 x i8]* @.str.18, i32 0, i32 0), i64 %31), !dbg !301
  %33 = load %struct._IO_FILE*, %struct._IO_FILE** %2, align 8, !dbg !302
  %34 = icmp ne %struct._IO_FILE* %33, null, !dbg !302
  br i1 %34, label %35, label %38, !dbg !304

; <label>:35:                                     ; preds = %10
  %36 = load %struct._IO_FILE*, %struct._IO_FILE** %2, align 8, !dbg !305
  %37 = call i32 @fclose(%struct._IO_FILE* %36), !dbg !308
  br label %38, !dbg !309

; <label>:38:                                     ; preds = %35, %10
  %39 = load i64*, i64** @dynFSIdx, align 8, !dbg !310
  %40 = icmp ne i64* %39, null, !dbg !310
  br i1 %40, label %41, label %44, !dbg !312

; <label>:41:                                     ; preds = %38
  %42 = load i64*, i64** @dynFSIdx, align 8, !dbg !313
  %43 = bitcast i64* %42 to i8*, !dbg !313
  call void @free(i8* %43) #10, !dbg !315
  store i64* null, i64** @dynFSIdx, align 8, !dbg !316
  br label %44, !dbg !317

; <label>:44:                                     ; preds = %41, %38
  %45 = call i32 (i8*, ...) @printf(i8* getelementptr inbounds ([62 x i8], [62 x i8]* @.str.19, i32 0, i32 0)), !dbg !318
  %46 = load i64, i64* %3, align 8, !dbg !319
  %47 = call i32 (i8*, ...) @printf(i8* getelementptr inbounds ([40 x i8], [40 x i8]* @.str.20, i32 0, i32 0), i64 %46), !dbg !320
  %48 = call i32 (i8*, ...) @printf(i8* getelementptr inbounds ([50 x i8], [50 x i8]* @.str.8, i32 0, i32 0)), !dbg !321
  %49 = load i64, i64* @fiIntTy1, align 8, !dbg !322
  %50 = call i32 (i8*, ...) @printf(i8* getelementptr inbounds ([55 x i8], [55 x i8]* @.str.21, i32 0, i32 0), i64 %49), !dbg !323
  %51 = load i64, i64* @fiIntTy16, align 8, !dbg !324
  %52 = call i32 (i8*, ...) @printf(i8* getelementptr inbounds ([56 x i8], [56 x i8]* @.str.22, i32 0, i32 0), i64 %51), !dbg !325
  %53 = load i64, i64* @fiIntTy32, align 8, !dbg !326
  %54 = call i32 (i8*, ...) @printf(i8* getelementptr inbounds ([56 x i8], [56 x i8]* @.str.23, i32 0, i32 0), i64 %53), !dbg !327
  %55 = load i64, i64* @fiIntTy64, align 8, !dbg !328
  %56 = call i32 (i8*, ...) @printf(i8* getelementptr inbounds ([56 x i8], [56 x i8]* @.str.24, i32 0, i32 0), i64 %55), !dbg !329
  %57 = load i64, i64* @fiFloatTy, align 8, !dbg !330
  %58 = call i32 (i8*, ...) @printf(i8* getelementptr inbounds ([56 x i8], [56 x i8]* @.str.25, i32 0, i32 0), i64 %57), !dbg !331
  %59 = load i64, i64* @fiDoubleTy, align 8, !dbg !332
  %60 = call i32 (i8*, ...) @printf(i8* getelementptr inbounds ([57 x i8], [57 x i8]* @.str.26, i32 0, i32 0), i64 %59), !dbg !333
  %61 = load i64, i64* @detectCounter, align 8, !dbg !334
  %62 = call i32 (i8*, ...) @printf(i8* getelementptr inbounds ([35 x i8], [35 x i8]* @.str.27, i32 0, i32 0), i64 %61), !dbg !335
  %63 = call i32 (i8*, ...) @printf(i8* getelementptr inbounds ([63 x i8], [63 x i8]* @.str.15, i32 0, i32 0)), !dbg !336
  store i32 0, i32* %1, align 4, !dbg !337
  br label %64, !dbg !337

; <label>:64:                                     ; preds = %44, %9
  %65 = load i32, i32* %1, align 4, !dbg !338
  ret i32 %65, !dbg !338
}

; Function Attrs: uwtable
define i32 @_Z21injectSoftErrorIntTy1iPKci(i32, i8*, i32) #0 !dbg !65 {
  %4 = alloca i32, align 4
  %5 = alloca i32, align 4
  %6 = alloca i8*, align 8
  %7 = alloca i32, align 4
  %8 = alloca i32, align 4
  %9 = alloca i32, align 4
  %10 = alloca i32, align 4
  store i32 %0, i32* %5, align 4
  call void @llvm.dbg.declare(metadata i32* %5, metadata !339, metadata !177), !dbg !340
  store i8* %1, i8** %6, align 8
  call void @llvm.dbg.declare(metadata i8** %6, metadata !341, metadata !177), !dbg !342
  store i32 %2, i32* %7, align 4
  call void @llvm.dbg.declare(metadata i32* %7, metadata !343, metadata !177), !dbg !344
  %11 = load i32, i32* @fidatardflag, align 4, !dbg !345
  %12 = icmp ne i32 %11, 0, !dbg !345
  br i1 %12, label %14, label %13, !dbg !347

; <label>:13:                                     ; preds = %3
  call void @_Z14updateFIParamsv(), !dbg !348
  br label %14, !dbg !350

; <label>:14:                                     ; preds = %13, %3
  call void @llvm.dbg.declare(metadata i32* %8, metadata !351, metadata !177), !dbg !352
  %15 = load i32, i32* %5, align 4, !dbg !353
  store i32 %15, i32* %8, align 4, !dbg !352
  call void @llvm.dbg.declare(metadata i32* %9, metadata !354, metadata !177), !dbg !355
  store i32 -1, i32* %9, align 4, !dbg !355
  %16 = bitcast i32* %7 to i8*, !dbg !356
  %17 = call i32 @_Z9checkMaskPvi(i8* %16, i32 4), !dbg !358
  %18 = icmp ne i32 %17, 0, !dbg !358
  br i1 %18, label %21, label %19, !dbg !359

; <label>:19:                                     ; preds = %14
  %20 = load i32, i32* %5, align 4, !dbg !360
  store i32 %20, i32* %4, align 4, !dbg !362
  br label %49, !dbg !362

; <label>:21:                                     ; preds = %14
  %22 = load i64, i64* @fsIntTy1, align 8, !dbg !363
  %23 = add nsw i64 %22, 1, !dbg !363
  store i64 %23, i64* @fsIntTy1, align 8, !dbg !363
  %24 = load i32, i32* @pfs, align 4, !dbg !364
  %25 = icmp eq i32 %24, 1, !dbg !366
  br i1 %25, label %26, label %28, !dbg !367

; <label>:26:                                     ; preds = %21
  %27 = load i32, i32* %5, align 4, !dbg !368
  store i32 %27, i32* %4, align 4, !dbg !370
  br label %49, !dbg !370

; <label>:28:                                     ; preds = %21
  %29 = call i32 @_Z13matchDynFSIdxv(), !dbg !371
  %30 = icmp ne i32 %29, 0, !dbg !371
  br i1 %30, label %33, label %31, !dbg !373

; <label>:31:                                     ; preds = %28
  %32 = load i32, i32* %5, align 4, !dbg !374
  store i32 %32, i32* %4, align 4, !dbg !376
  br label %49, !dbg !376

; <label>:33:                                     ; preds = %28
  call void @llvm.dbg.declare(metadata i32* %10, metadata !377, metadata !177), !dbg !378
  store i32 0, i32* %10, align 4, !dbg !378
  %34 = bitcast i32* %5 to i8*, !dbg !379
  %35 = load i32, i32* %10, align 4, !dbg !380
  %36 = load i32, i32* @fialg, align 4, !dbg !381
  %37 = call i32 @_Z7flipBitPvj8DataType6FIAlgo(i8* %34, i32 4, i32 %35, i32 %36), !dbg !382
  store i32 %37, i32* %9, align 4, !dbg !383
  %38 = load i32, i32* %9, align 4, !dbg !384
  %39 = icmp sge i32 %38, 0, !dbg !386
  br i1 %39, label %40, label %47, !dbg !387

; <label>:40:                                     ; preds = %33
  %41 = load i64, i64* @fiIntTy1, align 8, !dbg !388
  %42 = add nsw i64 %41, 1, !dbg !388
  store i64 %42, i64* @fiIntTy1, align 8, !dbg !388
  %43 = load i8*, i8** %6, align 8, !dbg !390
  %44 = bitcast i32* %8 to i8*, !dbg !391
  %45 = bitcast i32* %5 to i8*, !dbg !392
  %46 = bitcast i32* %9 to i8*, !dbg !393
  call void @_Z11writeFIDataPKcPvS1_S1_8DataTypeS0_(i8* %43, i8* %44, i8* %45, i8* %46, i32 0, i8* getelementptr inbounds ([2 x i8], [2 x i8]* @.str.28, i32 0, i32 0)), !dbg !394
  br label %47, !dbg !395

; <label>:47:                                     ; preds = %40, %33
  %48 = load i32, i32* %5, align 4, !dbg !396
  store i32 %48, i32* %4, align 4, !dbg !397
  br label %49, !dbg !397

; <label>:49:                                     ; preds = %47, %31, %26, %19
  %50 = load i32, i32* %4, align 4, !dbg !398
  ret i32 %50, !dbg !398
}

; Function Attrs: inlinehint uwtable
define linkonce_odr void @_Z14updateFIParamsv() #2 comdat !dbg !96 {
  %1 = alloca i8*, align 8
  %2 = alloca i8*, align 8
  %3 = alloca i8*, align 8
  %4 = alloca i64, align 8
  %5 = alloca i64, align 8
  %6 = alloca %struct._IO_FILE*, align 8
  %7 = alloca i8*, align 8
  %8 = alloca i8*, align 8
  %9 = alloca i8*, align 8
  %10 = alloca i8*, align 8
  call void @llvm.dbg.declare(metadata i8** %1, metadata !399, metadata !177), !dbg !400
  store i8* null, i8** %1, align 8, !dbg !400
  call void @llvm.dbg.declare(metadata i8** %2, metadata !401, metadata !177), !dbg !402
  call void @llvm.dbg.declare(metadata i8** %3, metadata !403, metadata !177), !dbg !404
  call void @llvm.dbg.declare(metadata i64* %4, metadata !405, metadata !177), !dbg !409
  store i64 0, i64* %4, align 8, !dbg !409
  call void @llvm.dbg.declare(metadata i64* %5, metadata !410, metadata !177), !dbg !413
  call void @llvm.dbg.declare(metadata %struct._IO_FILE** %6, metadata !414, metadata !177), !dbg !415
  %11 = call i64 @time(i64* null) #10, !dbg !416
  %12 = trunc i64 %11 to i32, !dbg !416
  call void @srand(i32 %12) #10, !dbg !417
  call void @_Z15updateTimeStampv(), !dbg !419
  %13 = load i8*, i8** @fiParams, align 8, !dbg !420
  %14 = call %struct._IO_FILE* @fopen(i8* %13, i8* getelementptr inbounds ([2 x i8], [2 x i8]* @.str.31, i32 0, i32 0)), !dbg !421
  store %struct._IO_FILE* %14, %struct._IO_FILE** %6, align 8, !dbg !422
  %15 = load %struct._IO_FILE*, %struct._IO_FILE** %6, align 8, !dbg !423
  %16 = icmp eq %struct._IO_FILE* %15, null, !dbg !425
  br i1 %16, label %17, label %19, !dbg !426

; <label>:17:                                     ; preds = %0
  %18 = call i32 (i8*, ...) @printf(i8* getelementptr inbounds ([43 x i8], [43 x i8]* @.str.32, i32 0, i32 0)), !dbg !427
  call void @exit(i32 -1) #15, !dbg !429
  unreachable, !dbg !429

; <label>:19:                                     ; preds = %0
  br label %20, !dbg !430

; <label>:20:                                     ; preds = %24, %19
  %21 = load %struct._IO_FILE*, %struct._IO_FILE** %6, align 8, !dbg !431
  %22 = call i64 @getline(i8** %1, i64* %4, %struct._IO_FILE* %21), !dbg !432
  store i64 %22, i64* %5, align 8, !dbg !433
  %23 = icmp ne i64 %22, -1, !dbg !434
  br i1 %23, label %24, label %31, !dbg !435

; <label>:24:                                     ; preds = %20
  %25 = load i8*, i8** %1, align 8, !dbg !436
  %26 = call i8* @_Z18getStrFieldByIndexPcPKci(i8* %25, i8* getelementptr inbounds ([3 x i8], [3 x i8]* @.str.33, i32 0, i32 0), i32 0), !dbg !438
  store i8* %26, i8** %2, align 8, !dbg !439
  %27 = load i8*, i8** %1, align 8, !dbg !440
  %28 = call i8* @_Z18getStrFieldByIndexPcPKci(i8* %27, i8* getelementptr inbounds ([3 x i8], [3 x i8]* @.str.33, i32 0, i32 0), i32 1), !dbg !441
  store i8* %28, i8** %3, align 8, !dbg !442
  %29 = load i8*, i8** %2, align 8, !dbg !443
  %30 = load i8*, i8** %3, align 8, !dbg !444
  call void @_Z13processParamsPKcS0_(i8* %29, i8* %30), !dbg !445
  br label %20, !dbg !446

; <label>:31:                                     ; preds = %20
  %32 = load i32, i32* @pfs, align 4, !dbg !448
  %33 = icmp eq i32 %32, 0, !dbg !450
  br i1 %33, label %34, label %73, !dbg !451

; <label>:34:                                     ; preds = %31
  %35 = load i64, i64* @tf, align 8, !dbg !452
  %36 = icmp sgt i64 %35, 0, !dbg !455
  br i1 %36, label %37, label %39, !dbg !456

; <label>:37:                                     ; preds = %34
  %38 = load i64, i64* @tf, align 8, !dbg !457
  store i64 %38, i64* @intvsz, align 8, !dbg !459
  br label %39, !dbg !460

; <label>:39:                                     ; preds = %37, %34
  %40 = load i64, i64* @dynFSCount, align 8, !dbg !461
  %41 = icmp sgt i64 %40, 0, !dbg !463
  br i1 %41, label %42, label %63, !dbg !464

; <label>:42:                                     ; preds = %39
  %43 = load i64, i64* @intvsz, align 8, !dbg !465
  %44 = icmp sgt i64 %43, 0, !dbg !467
  br i1 %44, label %45, label %63, !dbg !468

; <label>:45:                                     ; preds = %42
  %46 = load i64, i64* @dynFSCount, align 8, !dbg !469
  %47 = load i64, i64* @intvsz, align 8, !dbg !472
  %48 = srem i64 %46, %47, !dbg !473
  %49 = icmp eq i64 %48, 0, !dbg !474
  br i1 %49, label %50, label %54, !dbg !475

; <label>:50:                                     ; preds = %45
  %51 = load i64, i64* @dynFSCount, align 8, !dbg !476
  %52 = load i64, i64* @intvsz, align 8, !dbg !478
  %53 = sdiv i64 %51, %52, !dbg !479
  store i64 %53, i64* @intvCount, align 8, !dbg !480
  br label %62, !dbg !481

; <label>:54:                                     ; preds = %45
  %55 = load i64, i64* @dynFSCount, align 8, !dbg !482
  %56 = load i64, i64* @intvsz, align 8, !dbg !484
  %57 = sdiv i64 %55, %56, !dbg !485
  %58 = sitofp i64 %57 to double, !dbg !482
  %59 = call double @floor(double %58) #1, !dbg !486
  %60 = fadd double %59, 1.000000e+00, !dbg !487
  %61 = fptosi double %60 to i64, !dbg !486
  store i64 %61, i64* @intvCount, align 8, !dbg !488
  br label %62

; <label>:62:                                     ; preds = %54, %50
  br label %63, !dbg !489

; <label>:63:                                     ; preds = %62, %42, %39
  %64 = load i32, i32* @fidatardflag, align 4, !dbg !490
  %65 = icmp ne i32 %64, 0, !dbg !490
  br i1 %65, label %67, label %66, !dbg !492

; <label>:66:                                     ; preds = %63
  call void @_Z11updateFSIdxv(), !dbg !493
  br label %67, !dbg !495

; <label>:67:                                     ; preds = %66, %63
  %68 = load i64*, i64** @dynFSIdx, align 8, !dbg !496
  %69 = icmp eq i64* %68, null, !dbg !498
  br i1 %69, label %70, label %72, !dbg !499

; <label>:70:                                     ; preds = %67
  %71 = call i32 (i8*, ...) @printf(i8* getelementptr inbounds ([48 x i8], [48 x i8]* @.str.34, i32 0, i32 0)), !dbg !500
  call void @exit(i32 -1) #15, !dbg !502
  unreachable, !dbg !502

; <label>:72:                                     ; preds = %67
  br label %73, !dbg !503

; <label>:73:                                     ; preds = %72, %31
  call void @llvm.dbg.declare(metadata i8** %7, metadata !504, metadata !177), !dbg !505
  store i8* getelementptr inbounds ([11 x i8], [11 x i8]* @.str.35, i32 0, i32 0), i8** %7, align 8, !dbg !505
  call void @llvm.dbg.declare(metadata i8** %8, metadata !506, metadata !177), !dbg !507
  store i8* getelementptr inbounds ([15 x i8], [15 x i8]* @.str.36, i32 0, i32 0), i8** %8, align 8, !dbg !507
  call void @llvm.dbg.declare(metadata i8** %9, metadata !508, metadata !177), !dbg !509
  store i8* getelementptr inbounds ([16 x i8], [16 x i8]* @.str.37, i32 0, i32 0), i8** %9, align 8, !dbg !509
  call void @llvm.dbg.declare(metadata i8** %10, metadata !510, metadata !177), !dbg !511
  store i8* getelementptr inbounds ([13 x i8], [13 x i8]* @.str.38, i32 0, i32 0), i8** %10, align 8, !dbg !511
  %74 = load i8*, i8** @fiStat, align 8, !dbg !512
  %75 = call i32 @_Z11file_existsPKc(i8* %74), !dbg !514
  %76 = icmp ne i32 %75, 0, !dbg !514
  br i1 %76, label %85, label %77, !dbg !515

; <label>:77:                                     ; preds = %73
  %78 = load i32, i32* @pfs, align 4, !dbg !516
  %79 = icmp eq i32 %78, 0, !dbg !518
  br i1 %79, label %80, label %85, !dbg !519

; <label>:80:                                     ; preds = %77
  %81 = load i8*, i8** %7, align 8, !dbg !520
  %82 = load i8*, i8** %8, align 8, !dbg !522
  %83 = load i8*, i8** %9, align 8, !dbg !523
  %84 = load i8*, i8** %10, align 8, !dbg !524
  call void @_Z11writeFIDataPKcPvS1_S1_8DataTypeS0_(i8* %81, i8* %82, i8* %83, i8* %84, i32 7, i8* getelementptr inbounds ([2 x i8], [2 x i8]* @.str.4, i32 0, i32 0)), !dbg !525
  br label %85, !dbg !526

; <label>:85:                                     ; preds = %80, %77, %73
  call void @_Z11printParamsv(), !dbg !527
  call void @_Z11checkParamsv(), !dbg !528
  store i32 1, i32* @fidatardflag, align 4, !dbg !529
  %86 = load %struct._IO_FILE*, %struct._IO_FILE** %6, align 8, !dbg !530
  %87 = call i32 @fclose(%struct._IO_FILE* %86), !dbg !531
  ret void, !dbg !532
}

; Function Attrs: inlinehint nounwind uwtable
define linkonce_odr i32 @_Z9checkMaskPvi(i8*, i32) #6 comdat !dbg !115 {
  %3 = alloca i8*, align 8
  %4 = alloca i32, align 4
  %5 = alloca i64, align 8
  %6 = alloca i8*, align 8
  store i8* %0, i8** %3, align 8
  call void @llvm.dbg.declare(metadata i8** %3, metadata !533, metadata !177), !dbg !534
  store i32 %1, i32* %4, align 4
  call void @llvm.dbg.declare(metadata i32* %4, metadata !535, metadata !177), !dbg !536
  call void @llvm.dbg.declare(metadata i64* %5, metadata !537, metadata !177), !dbg !538
  store i64 0, i64* %5, align 8, !dbg !538
  call void @llvm.dbg.declare(metadata i8** %6, metadata !539, metadata !177), !dbg !540
  %7 = bitcast i64* %5 to i8*, !dbg !541
  store i8* %7, i8** %6, align 8, !dbg !540
  %8 = load i8*, i8** %3, align 8, !dbg !542
  %9 = load i8*, i8** %6, align 8, !dbg !543
  %10 = load i32, i32* %4, align 4, !dbg !544
  %11 = sext i32 %10 to i64, !dbg !544
  %12 = call i32 @memcmp(i8* %8, i8* %9, i64 %11) #16, !dbg !545
  %13 = icmp ne i32 %12, 0, !dbg !546
  %14 = zext i1 %13 to i32, !dbg !545
  ret i32 %14, !dbg !547
}

; Function Attrs: inlinehint uwtable
define linkonce_odr i32 @_Z13matchDynFSIdxv() #2 comdat !dbg !118 {
  %1 = alloca i32, align 4
  %2 = alloca i32, align 4
  %3 = alloca i32, align 4
  %4 = alloca i32, align 4
  call void @llvm.dbg.declare(metadata i32* %2, metadata !548, metadata !177), !dbg !549
  call void @llvm.dbg.declare(metadata i32* %3, metadata !550, metadata !177), !dbg !551
  call void @llvm.dbg.declare(metadata i32* %4, metadata !552, metadata !177), !dbg !553
  %5 = load i64, i64* @dynFSCounter, align 8, !dbg !554
  %6 = add nsw i64 %5, 1, !dbg !554
  store i64 %6, i64* @dynFSCounter, align 8, !dbg !554
  %7 = load i64, i64* @dynFSCounter, align 8, !dbg !555
  %8 = call i32 @_Z14getIntervalIdxx(i64 %7), !dbg !556
  store i32 %8, i32* %2, align 4, !dbg !557
  %9 = load i32, i32* %2, align 4, !dbg !558
  %10 = icmp slt i32 %9, 0, !dbg !560
  br i1 %10, label %16, label %11, !dbg !561

; <label>:11:                                     ; preds = %0
  %12 = load i32, i32* %2, align 4, !dbg !562
  %13 = sext i32 %12 to i64, !dbg !562
  %14 = load i64, i64* @intvCount, align 8, !dbg !564
  %15 = icmp sge i64 %13, %14, !dbg !565
  br i1 %15, label %16, label %17, !dbg !566

; <label>:16:                                     ; preds = %11, %0
  store i32 0, i32* %1, align 4, !dbg !567
  br label %44, !dbg !567

; <label>:17:                                     ; preds = %11
  %18 = load i32, i32* %2, align 4, !dbg !569
  %19 = sext i32 %18 to i64, !dbg !569
  %20 = load i64, i64* @ef, align 8, !dbg !570
  %21 = mul nsw i64 %19, %20, !dbg !571
  %22 = trunc i64 %21 to i32, !dbg !572
  store i32 %22, i32* %3, align 4, !dbg !573
  store i32 0, i32* %4, align 4, !dbg !574
  br label %23, !dbg !576

; <label>:23:                                     ; preds = %40, %17
  %24 = load i32, i32* %4, align 4, !dbg !577
  %25 = sext i32 %24 to i64, !dbg !577
  %26 = load i64, i64* @ef, align 8, !dbg !580
  %27 = icmp slt i64 %25, %26, !dbg !581
  br i1 %27, label %28, label %43, !dbg !582

; <label>:28:                                     ; preds = %23
  %29 = load i32, i32* %3, align 4, !dbg !583
  %30 = load i32, i32* %4, align 4, !dbg !586
  %31 = add nsw i32 %29, %30, !dbg !587
  %32 = sext i32 %31 to i64, !dbg !588
  %33 = load i64*, i64** @dynFSIdx, align 8, !dbg !588
  %34 = getelementptr inbounds i64, i64* %33, i64 %32, !dbg !588
  %35 = load i64, i64* %34, align 8, !dbg !588
  %36 = load i64, i64* @dynFSCounter, align 8, !dbg !589
  %37 = icmp eq i64 %35, %36, !dbg !590
  br i1 %37, label %38, label %39, !dbg !591

; <label>:38:                                     ; preds = %28
  store i32 1, i32* %1, align 4, !dbg !592
  br label %44, !dbg !592

; <label>:39:                                     ; preds = %28
  br label %40, !dbg !594

; <label>:40:                                     ; preds = %39
  %41 = load i32, i32* %4, align 4, !dbg !595
  %42 = add nsw i32 %41, 1, !dbg !595
  store i32 %42, i32* %4, align 4, !dbg !595
  br label %23, !dbg !597

; <label>:43:                                     ; preds = %23
  store i32 0, i32* %1, align 4, !dbg !598
  br label %44, !dbg !598

; <label>:44:                                     ; preds = %43, %38, %16
  %45 = load i32, i32* %1, align 4, !dbg !599
  ret i32 %45, !dbg !599
}

; Function Attrs: inlinehint uwtable
define linkonce_odr i32 @_Z7flipBitPvj8DataType6FIAlgo(i8*, i32, i32, i32) #2 comdat !dbg !122 {
  %5 = alloca i8*, align 8
  %6 = alloca i32, align 4
  %7 = alloca i32, align 4
  %8 = alloca i32, align 4
  %9 = alloca i64, align 8
  %10 = alloca i64, align 8
  store i8* %0, i8** %5, align 8
  call void @llvm.dbg.declare(metadata i8** %5, metadata !600, metadata !177), !dbg !601
  store i32 %1, i32* %6, align 4
  call void @llvm.dbg.declare(metadata i32* %6, metadata !602, metadata !177), !dbg !603
  store i32 %2, i32* %7, align 4
  call void @llvm.dbg.declare(metadata i32* %7, metadata !604, metadata !177), !dbg !605
  store i32 %3, i32* %8, align 4
  call void @llvm.dbg.declare(metadata i32* %8, metadata !606, metadata !177), !dbg !607
  call void @llvm.dbg.declare(metadata i64* %9, metadata !608, metadata !177), !dbg !609
  store i64 0, i64* %9, align 8, !dbg !609
  call void @llvm.dbg.declare(metadata i64* %10, metadata !610, metadata !177), !dbg !611
  store i64 -1, i64* %10, align 8, !dbg !611
  %11 = load i32, i32* %7, align 4, !dbg !612
  %12 = icmp eq i32 %11, 0, !dbg !614
  br i1 %12, label %13, label %14, !dbg !615

; <label>:13:                                     ; preds = %4
  store i64 0, i64* %10, align 8, !dbg !616
  br label %20, !dbg !618

; <label>:14:                                     ; preds = %4
  %15 = load i32, i32* %6, align 4, !dbg !619
  %16 = load i32, i32* %7, align 4, !dbg !621
  %17 = load i32, i32* %8, align 4, !dbg !622
  %18 = call i32 @_Z9getBitPosj8DataType6FIAlgo(i32 %15, i32 %16, i32 %17), !dbg !623
  %19 = sext i32 %18 to i64, !dbg !623
  store i64 %19, i64* %10, align 8, !dbg !624
  br label %20

; <label>:20:                                     ; preds = %14, %13
  %21 = bitcast i64* %9 to i8*, !dbg !625
  %22 = load i8*, i8** %5, align 8, !dbg !626
  %23 = load i32, i32* %6, align 4, !dbg !627
  %24 = zext i32 %23 to i64, !dbg !627
  call void @llvm.memcpy.p0i8.p0i8.i64(i8* %21, i8* %22, i64 %24, i32 1, i1 false), !dbg !628
  %25 = load i64, i64* %9, align 8, !dbg !629
  %26 = load i64, i64* %10, align 8, !dbg !631
  %27 = ashr i64 %25, %26, !dbg !632
  %28 = and i64 %27, 1, !dbg !633
  %29 = icmp ne i64 %28, 0, !dbg !634
  br i1 %29, label %30, label %36, !dbg !635

; <label>:30:                                     ; preds = %20
  %31 = load i64, i64* %9, align 8, !dbg !636
  %32 = load i64, i64* %10, align 8, !dbg !638
  %33 = shl i64 1, %32, !dbg !639
  %34 = xor i64 %33, -1, !dbg !640
  %35 = and i64 %31, %34, !dbg !641
  store i64 %35, i64* %9, align 8, !dbg !642
  br label %41, !dbg !643

; <label>:36:                                     ; preds = %20
  %37 = load i64, i64* %9, align 8, !dbg !644
  %38 = load i64, i64* %10, align 8, !dbg !646
  %39 = shl i64 1, %38, !dbg !647
  %40 = or i64 %37, %39, !dbg !648
  store i64 %40, i64* %9, align 8, !dbg !649
  br label %41

; <label>:41:                                     ; preds = %36, %30
  %42 = load i8*, i8** %5, align 8, !dbg !650
  %43 = bitcast i64* %9 to i8*, !dbg !651
  %44 = load i32, i32* %6, align 4, !dbg !652
  %45 = zext i32 %44 to i64, !dbg !652
  call void @llvm.memcpy.p0i8.p0i8.i64(i8* %42, i8* %43, i64 %45, i32 1, i1 false), !dbg !653
  %46 = load i64, i64* %10, align 8, !dbg !654
  %47 = trunc i64 %46 to i32, !dbg !654
  ret i32 %47, !dbg !655
}

; Function Attrs: inlinehint uwtable
define linkonce_odr void @_Z11writeFIDataPKcPvS1_S1_8DataTypeS0_(i8*, i8*, i8*, i8*, i32, i8*) #2 comdat !dbg !135 {
  %7 = alloca i8*, align 8
  %8 = alloca i8*, align 8
  %9 = alloca i8*, align 8
  %10 = alloca i8*, align 8
  %11 = alloca i32, align 4
  %12 = alloca i8*, align 8
  %13 = alloca %struct._IO_FILE*, align 8
  %14 = alloca [1024 x i8], align 16
  %15 = alloca i32, align 4
  store i8* %0, i8** %7, align 8
  call void @llvm.dbg.declare(metadata i8** %7, metadata !656, metadata !177), !dbg !657
  store i8* %1, i8** %8, align 8
  call void @llvm.dbg.declare(metadata i8** %8, metadata !658, metadata !177), !dbg !659
  store i8* %2, i8** %9, align 8
  call void @llvm.dbg.declare(metadata i8** %9, metadata !660, metadata !177), !dbg !661
  store i8* %3, i8** %10, align 8
  call void @llvm.dbg.declare(metadata i8** %10, metadata !662, metadata !177), !dbg !663
  store i32 %4, i32* %11, align 4
  call void @llvm.dbg.declare(metadata i32* %11, metadata !664, metadata !177), !dbg !665
  store i8* %5, i8** %12, align 8
  call void @llvm.dbg.declare(metadata i8** %12, metadata !666, metadata !177), !dbg !667
  call void @llvm.dbg.declare(metadata %struct._IO_FILE** %13, metadata !668, metadata !177), !dbg !669
  %16 = load i8*, i8** @fiStat, align 8, !dbg !670
  %17 = load i8*, i8** %12, align 8, !dbg !671
  %18 = call %struct._IO_FILE* @_Z5getFDPKcS0_(i8* %16, i8* %17), !dbg !672
  store %struct._IO_FILE* %18, %struct._IO_FILE** %13, align 8, !dbg !669
  call void @llvm.dbg.declare(metadata [1024 x i8]* %14, metadata !673, metadata !177), !dbg !677
  call void @llvm.dbg.declare(metadata i32* %15, metadata !678, metadata !177), !dbg !679
  %19 = load i8*, i8** %7, align 8, !dbg !680
  %20 = call i64 @strlen(i8* %19) #16, !dbg !681
  %21 = trunc i64 %20 to i32, !dbg !681
  store i32 %21, i32* %15, align 4, !dbg !679
  %22 = load i32, i32* %11, align 4, !dbg !682
  %23 = icmp eq i32 %22, 7, !dbg !684
  br i1 %23, label %24, label %27, !dbg !685

; <label>:24:                                     ; preds = %6
  %25 = load %struct._IO_FILE*, %struct._IO_FILE** %13, align 8, !dbg !686
  %26 = call i32 (%struct._IO_FILE*, i8*, ...) @fprintf(%struct._IO_FILE* %25, i8* getelementptr inbounds ([6 x i8], [6 x i8]* @.str.75, i32 0, i32 0)), !dbg !688
  br label %31, !dbg !689

; <label>:27:                                     ; preds = %6
  %28 = load %struct._IO_FILE*, %struct._IO_FILE** %13, align 8, !dbg !690
  %29 = load i64, i64* @execKey, align 8, !dbg !692
  %30 = call i32 (%struct._IO_FILE*, i8*, ...) @fprintf(%struct._IO_FILE* %28, i8* getelementptr inbounds ([5 x i8], [5 x i8]* @.str.76, i32 0, i32 0), i64 %29), !dbg !693
  br label %31

; <label>:31:                                     ; preds = %27, %24
  %32 = getelementptr inbounds [1024 x i8], [1024 x i8]* %14, i32 0, i32 0, !dbg !694
  %33 = call i8* @strcpy(i8* %32, i8* getelementptr inbounds ([2 x i8], [2 x i8]* @.str.77, i32 0, i32 0)) #10, !dbg !695
  %34 = getelementptr inbounds [1024 x i8], [1024 x i8]* %14, i32 0, i32 0, !dbg !696
  %35 = getelementptr inbounds i8, i8* %34, i64 1, !dbg !697
  %36 = load i8*, i8** %7, align 8, !dbg !698
  %37 = load i32, i32* %15, align 4, !dbg !699
  %38 = zext i32 %37 to i64, !dbg !699
  %39 = call i8* @strncpy(i8* %35, i8* %36, i64 %38) #10, !dbg !700
  %40 = getelementptr inbounds [1024 x i8], [1024 x i8]* %14, i32 0, i32 0, !dbg !701
  %41 = load i32, i32* %15, align 4, !dbg !702
  %42 = zext i32 %41 to i64, !dbg !703
  %43 = getelementptr inbounds i8, i8* %40, i64 %42, !dbg !703
  %44 = call i8* @strcpy(i8* %43, i8* getelementptr inbounds ([3 x i8], [3 x i8]* @.str.78, i32 0, i32 0)) #10, !dbg !704
  %45 = load %struct._IO_FILE*, %struct._IO_FILE** %13, align 8, !dbg !705
  %46 = getelementptr inbounds [1024 x i8], [1024 x i8]* %14, i32 0, i32 0, !dbg !706
  %47 = call i32 (%struct._IO_FILE*, i8*, ...) @fprintf(%struct._IO_FILE* %45, i8* getelementptr inbounds ([4 x i8], [4 x i8]* @.str.79, i32 0, i32 0), i8* %46), !dbg !707
  %48 = load i32, i32* %11, align 4, !dbg !708
  %49 = icmp eq i32 %48, 0, !dbg !710
  br i1 %49, label %56, label %50, !dbg !711

; <label>:50:                                     ; preds = %31
  %51 = load i32, i32* %11, align 4, !dbg !712
  %52 = icmp eq i32 %51, 2, !dbg !713
  br i1 %52, label %56, label %53, !dbg !714

; <label>:53:                                     ; preds = %50
  %54 = load i32, i32* %11, align 4, !dbg !715
  %55 = icmp eq i32 %54, 3, !dbg !716
  br i1 %55, label %56, label %67, !dbg !717

; <label>:56:                                     ; preds = %53, %50, %31
  %57 = load %struct._IO_FILE*, %struct._IO_FILE** %13, align 8, !dbg !719
  %58 = load i8*, i8** %8, align 8, !dbg !721
  %59 = bitcast i8* %58 to i32*, !dbg !722
  %60 = load i32, i32* %59, align 4, !dbg !723
  %61 = call i32 (%struct._IO_FILE*, i8*, ...) @fprintf(%struct._IO_FILE* %57, i8* getelementptr inbounds ([4 x i8], [4 x i8]* @.str.80, i32 0, i32 0), i32 %60), !dbg !724
  %62 = load %struct._IO_FILE*, %struct._IO_FILE** %13, align 8, !dbg !725
  %63 = load i8*, i8** %9, align 8, !dbg !726
  %64 = bitcast i8* %63 to i32*, !dbg !727
  %65 = load i32, i32* %64, align 4, !dbg !728
  %66 = call i32 (%struct._IO_FILE*, i8*, ...) @fprintf(%struct._IO_FILE* %62, i8* getelementptr inbounds ([4 x i8], [4 x i8]* @.str.80, i32 0, i32 0), i32 %65), !dbg !729
  br label %140, !dbg !730

; <label>:67:                                     ; preds = %53
  %68 = load i32, i32* %11, align 4, !dbg !731
  %69 = icmp eq i32 %68, 1, !dbg !734
  br i1 %69, label %70, label %81, !dbg !731

; <label>:70:                                     ; preds = %67
  %71 = load %struct._IO_FILE*, %struct._IO_FILE** %13, align 8, !dbg !735
  %72 = load i8*, i8** %8, align 8, !dbg !737
  %73 = load i8, i8* %72, align 1, !dbg !738
  %74 = sext i8 %73 to i32, !dbg !738
  %75 = call i32 (%struct._IO_FILE*, i8*, ...) @fprintf(%struct._IO_FILE* %71, i8* getelementptr inbounds ([4 x i8], [4 x i8]* @.str.81, i32 0, i32 0), i32 %74), !dbg !739
  %76 = load %struct._IO_FILE*, %struct._IO_FILE** %13, align 8, !dbg !740
  %77 = load i8*, i8** %9, align 8, !dbg !741
  %78 = load i8, i8* %77, align 1, !dbg !742
  %79 = sext i8 %78 to i32, !dbg !742
  %80 = call i32 (%struct._IO_FILE*, i8*, ...) @fprintf(%struct._IO_FILE* %76, i8* getelementptr inbounds ([4 x i8], [4 x i8]* @.str.81, i32 0, i32 0), i32 %79), !dbg !743
  br label %139, !dbg !744

; <label>:81:                                     ; preds = %67
  %82 = load i32, i32* %11, align 4, !dbg !745
  %83 = icmp eq i32 %82, 4, !dbg !748
  br i1 %83, label %84, label %95, !dbg !745

; <label>:84:                                     ; preds = %81
  %85 = load %struct._IO_FILE*, %struct._IO_FILE** %13, align 8, !dbg !749
  %86 = load i8*, i8** %8, align 8, !dbg !751
  %87 = bitcast i8* %86 to i64*, !dbg !752
  %88 = load i64, i64* %87, align 8, !dbg !753
  %89 = call i32 (%struct._IO_FILE*, i8*, ...) @fprintf(%struct._IO_FILE* %85, i8* getelementptr inbounds ([6 x i8], [6 x i8]* @.str.82, i32 0, i32 0), i64 %88), !dbg !754
  %90 = load %struct._IO_FILE*, %struct._IO_FILE** %13, align 8, !dbg !755
  %91 = load i8*, i8** %9, align 8, !dbg !756
  %92 = bitcast i8* %91 to i64*, !dbg !757
  %93 = load i64, i64* %92, align 8, !dbg !758
  %94 = call i32 (%struct._IO_FILE*, i8*, ...) @fprintf(%struct._IO_FILE* %90, i8* getelementptr inbounds ([6 x i8], [6 x i8]* @.str.82, i32 0, i32 0), i64 %93), !dbg !759
  br label %138, !dbg !760

; <label>:95:                                     ; preds = %81
  %96 = load i32, i32* %11, align 4, !dbg !761
  %97 = icmp eq i32 %96, 5, !dbg !764
  br i1 %97, label %98, label %111, !dbg !761

; <label>:98:                                     ; preds = %95
  %99 = load %struct._IO_FILE*, %struct._IO_FILE** %13, align 8, !dbg !765
  %100 = load i8*, i8** %8, align 8, !dbg !767
  %101 = bitcast i8* %100 to float*, !dbg !768
  %102 = load float, float* %101, align 4, !dbg !769
  %103 = fpext float %102 to double, !dbg !769
  %104 = call i32 (%struct._IO_FILE*, i8*, ...) @fprintf(%struct._IO_FILE* %99, i8* getelementptr inbounds ([4 x i8], [4 x i8]* @.str.83, i32 0, i32 0), double %103), !dbg !770
  %105 = load %struct._IO_FILE*, %struct._IO_FILE** %13, align 8, !dbg !771
  %106 = load i8*, i8** %9, align 8, !dbg !772
  %107 = bitcast i8* %106 to float*, !dbg !773
  %108 = load float, float* %107, align 4, !dbg !774
  %109 = fpext float %108 to double, !dbg !774
  %110 = call i32 (%struct._IO_FILE*, i8*, ...) @fprintf(%struct._IO_FILE* %105, i8* getelementptr inbounds ([4 x i8], [4 x i8]* @.str.83, i32 0, i32 0), double %109), !dbg !775
  br label %137, !dbg !776

; <label>:111:                                    ; preds = %95
  %112 = load i32, i32* %11, align 4, !dbg !777
  %113 = icmp eq i32 %112, 6, !dbg !780
  br i1 %113, label %114, label %125, !dbg !777

; <label>:114:                                    ; preds = %111
  %115 = load %struct._IO_FILE*, %struct._IO_FILE** %13, align 8, !dbg !781
  %116 = load i8*, i8** %8, align 8, !dbg !783
  %117 = bitcast i8* %116 to double*, !dbg !784
  %118 = load double, double* %117, align 8, !dbg !785
  %119 = call i32 (%struct._IO_FILE*, i8*, ...) @fprintf(%struct._IO_FILE* %115, i8* getelementptr inbounds ([5 x i8], [5 x i8]* @.str.84, i32 0, i32 0), double %118), !dbg !786
  %120 = load %struct._IO_FILE*, %struct._IO_FILE** %13, align 8, !dbg !787
  %121 = load i8*, i8** %9, align 8, !dbg !788
  %122 = bitcast i8* %121 to double*, !dbg !789
  %123 = load double, double* %122, align 8, !dbg !790
  %124 = call i32 (%struct._IO_FILE*, i8*, ...) @fprintf(%struct._IO_FILE* %120, i8* getelementptr inbounds ([5 x i8], [5 x i8]* @.str.84, i32 0, i32 0), double %123), !dbg !791
  br label %136, !dbg !792

; <label>:125:                                    ; preds = %111
  %126 = load i32, i32* %11, align 4, !dbg !793
  %127 = icmp eq i32 %126, 7, !dbg !796
  br i1 %127, label %128, label %135, !dbg !793

; <label>:128:                                    ; preds = %125
  %129 = load %struct._IO_FILE*, %struct._IO_FILE** %13, align 8, !dbg !797
  %130 = load i8*, i8** %8, align 8, !dbg !799
  %131 = call i32 (%struct._IO_FILE*, i8*, ...) @fprintf(%struct._IO_FILE* %129, i8* getelementptr inbounds ([4 x i8], [4 x i8]* @.str.79, i32 0, i32 0), i8* %130), !dbg !800
  %132 = load %struct._IO_FILE*, %struct._IO_FILE** %13, align 8, !dbg !801
  %133 = load i8*, i8** %9, align 8, !dbg !802
  %134 = call i32 (%struct._IO_FILE*, i8*, ...) @fprintf(%struct._IO_FILE* %132, i8* getelementptr inbounds ([4 x i8], [4 x i8]* @.str.79, i32 0, i32 0), i8* %133), !dbg !803
  br label %135, !dbg !804

; <label>:135:                                    ; preds = %128, %125
  br label %136

; <label>:136:                                    ; preds = %135, %114
  br label %137

; <label>:137:                                    ; preds = %136, %98
  br label %138

; <label>:138:                                    ; preds = %137, %84
  br label %139

; <label>:139:                                    ; preds = %138, %70
  br label %140

; <label>:140:                                    ; preds = %139, %56
  %141 = load i32, i32* %11, align 4, !dbg !805
  %142 = icmp eq i32 %141, 7, !dbg !807
  br i1 %142, label %143, label %147, !dbg !808

; <label>:143:                                    ; preds = %140
  %144 = load %struct._IO_FILE*, %struct._IO_FILE** %13, align 8, !dbg !809
  %145 = load i8*, i8** %10, align 8, !dbg !811
  %146 = call i32 (%struct._IO_FILE*, i8*, ...) @fprintf(%struct._IO_FILE* %144, i8* getelementptr inbounds ([4 x i8], [4 x i8]* @.str.85, i32 0, i32 0), i8* %145), !dbg !812
  br label %153, !dbg !813

; <label>:147:                                    ; preds = %140
  %148 = load %struct._IO_FILE*, %struct._IO_FILE** %13, align 8, !dbg !814
  %149 = load i8*, i8** %10, align 8, !dbg !816
  %150 = bitcast i8* %149 to i32*, !dbg !817
  %151 = load i32, i32* %150, align 4, !dbg !818
  %152 = call i32 (%struct._IO_FILE*, i8*, ...) @fprintf(%struct._IO_FILE* %148, i8* getelementptr inbounds ([4 x i8], [4 x i8]* @.str.86, i32 0, i32 0), i32 %151), !dbg !819
  br label %153

; <label>:153:                                    ; preds = %147, %143
  %154 = load %struct._IO_FILE*, %struct._IO_FILE** %13, align 8, !dbg !820
  %155 = icmp ne %struct._IO_FILE* %154, null, !dbg !820
  br i1 %155, label %156, label %159, !dbg !822

; <label>:156:                                    ; preds = %153
  %157 = load %struct._IO_FILE*, %struct._IO_FILE** %13, align 8, !dbg !823
  %158 = call i32 @fclose(%struct._IO_FILE* %157), !dbg !826
  br label %159, !dbg !827

; <label>:159:                                    ; preds = %156, %153
  ret void, !dbg !828
}

; Function Attrs: nounwind readonly
declare i64 @strlen(i8*) #7

; Function Attrs: nounwind
declare i8* @strcpy(i8*, i8*) #4

; Function Attrs: nounwind
declare i8* @strncpy(i8*, i8*, i64) #4

; Function Attrs: inlinehint uwtable
define linkonce_odr i32 @_Z9getBitPosj8DataType6FIAlgo(i32, i32, i32) #2 comdat !dbg !126 {
  %4 = alloca i32, align 4
  %5 = alloca i32, align 4
  %6 = alloca i32, align 4
  %7 = alloca i32, align 4
  store i32 %0, i32* %4, align 4
  call void @llvm.dbg.declare(metadata i32* %4, metadata !829, metadata !177), !dbg !830
  store i32 %1, i32* %5, align 4
  call void @llvm.dbg.declare(metadata i32* %5, metadata !831, metadata !177), !dbg !832
  store i32 %2, i32* %6, align 4
  call void @llvm.dbg.declare(metadata i32* %6, metadata !833, metadata !177), !dbg !834
  call void @llvm.dbg.declare(metadata i32* %7, metadata !835, metadata !177), !dbg !836
  store i32 -1, i32* %7, align 4, !dbg !836
  %8 = load i32, i32* %6, align 4, !dbg !837
  switch i32 %8, label %21 [
    i32 0, label %9
    i32 1, label %12
    i32 2, label %15
    i32 3, label %19
  ], !dbg !838

; <label>:9:                                      ; preds = %3
  %10 = load i32, i32* %4, align 4, !dbg !839
  %11 = call i32 @_Z12getBitPosCBRj(i32 %10), !dbg !841
  store i32 %11, i32* %7, align 4, !dbg !842
  br label %21, !dbg !843

; <label>:12:                                     ; preds = %3
  %13 = load i32, i32* %5, align 4, !dbg !844
  %14 = call i32 @_Z12getBitPosABR8DataType(i32 %13), !dbg !845
  store i32 %14, i32* %7, align 4, !dbg !846
  br label %21, !dbg !847

; <label>:15:                                     ; preds = %3
  %16 = load i32, i32* %4, align 4, !dbg !848
  %17 = mul i32 %16, 8, !dbg !849
  %18 = sub i32 %17, 1, !dbg !850
  store i32 %18, i32* %7, align 4, !dbg !851
  br label %21, !dbg !852

; <label>:19:                                     ; preds = %3
  %20 = call i32 (i8*, ...) @printf(i8* getelementptr inbounds ([45 x i8], [45 x i8]* @.str.74, i32 0, i32 0)), !dbg !853
  call void @exit(i32 -1) #15, !dbg !854
  unreachable, !dbg !854

; <label>:21:                                     ; preds = %3, %15, %12, %9
  %22 = load i32, i32* %7, align 4, !dbg !855
  ret i32 %22, !dbg !856
}

; Function Attrs: argmemonly nounwind
declare void @llvm.memcpy.p0i8.p0i8.i64(i8* nocapture, i8* nocapture readonly, i64, i32, i1) #8

; Function Attrs: inlinehint nounwind uwtable
define linkonce_odr i32 @_Z12getBitPosCBRj(i32) #6 comdat !dbg !129 {
  %2 = alloca i32, align 4
  %3 = alloca i32, align 4
  %4 = alloca i32, align 4
  %5 = alloca i32, align 4
  %6 = alloca i32, align 4
  store i32 %0, i32* %2, align 4
  call void @llvm.dbg.declare(metadata i32* %2, metadata !857, metadata !177), !dbg !858
  call void @llvm.dbg.declare(metadata i32* %3, metadata !859, metadata !177), !dbg !860
  %7 = load i32, i32* %2, align 4, !dbg !861
  %8 = mul i32 %7, 8, !dbg !862
  store i32 %8, i32* %3, align 4, !dbg !860
  call void @llvm.dbg.declare(metadata i32* %4, metadata !863, metadata !177), !dbg !864
  store i32 -1, i32* %4, align 4, !dbg !864
  call void @llvm.dbg.declare(metadata i32* %5, metadata !865, metadata !177), !dbg !866
  store i32 -1, i32* %5, align 4, !dbg !866
  call void @llvm.dbg.declare(metadata i32* %6, metadata !867, metadata !177), !dbg !868
  store i32 -1, i32* %6, align 4, !dbg !868
  %9 = load i32, i32* @fid, align 4, !dbg !869
  %10 = icmp eq i32 %9, 1, !dbg !871
  br i1 %10, label %11, label %25, !dbg !872

; <label>:11:                                     ; preds = %1
  %12 = load i32, i32* %2, align 4, !dbg !873
  %13 = mul i32 %12, 8, !dbg !875
  %14 = sub i32 %13, 1, !dbg !876
  store i32 %14, i32* %4, align 4, !dbg !877
  %15 = load i32, i32* @fibr, align 4, !dbg !878
  %16 = load i32, i32* %2, align 4, !dbg !880
  %17 = icmp ule i32 %15, %16, !dbg !881
  br i1 %17, label %18, label %23, !dbg !882

; <label>:18:                                     ; preds = %11
  %19 = load i32, i32* %2, align 4, !dbg !883
  %20 = load i32, i32* @fibr, align 4, !dbg !885
  %21 = sub i32 %19, %20, !dbg !886
  %22 = mul i32 %21, 8, !dbg !887
  store i32 %22, i32* %5, align 4, !dbg !888
  br label %24, !dbg !889

; <label>:23:                                     ; preds = %11
  store i32 0, i32* %5, align 4, !dbg !890
  br label %24

; <label>:24:                                     ; preds = %23, %18
  br label %38, !dbg !892

; <label>:25:                                     ; preds = %1
  store i32 0, i32* %4, align 4, !dbg !893
  %26 = load i32, i32* @fibr, align 4, !dbg !895
  %27 = load i32, i32* %2, align 4, !dbg !897
  %28 = icmp ule i32 %26, %27, !dbg !898
  br i1 %28, label %29, label %33, !dbg !899

; <label>:29:                                     ; preds = %25
  %30 = load i32, i32* @fibr, align 4, !dbg !900
  %31 = mul nsw i32 %30, 8, !dbg !902
  %32 = sub nsw i32 %31, 1, !dbg !903
  store i32 %32, i32* %5, align 4, !dbg !904
  br label %37, !dbg !905

; <label>:33:                                     ; preds = %25
  %34 = load i32, i32* %2, align 4, !dbg !906
  %35 = mul i32 %34, 8, !dbg !908
  %36 = sub i32 %35, 1, !dbg !909
  store i32 %36, i32* %5, align 4, !dbg !910
  br label %37

; <label>:37:                                     ; preds = %33, %29
  br label %38

; <label>:38:                                     ; preds = %37, %24
  %39 = load i32, i32* @fid, align 4, !dbg !911
  %40 = icmp ne i32 %39, 0, !dbg !911
  br i1 %40, label %41, label %51, !dbg !913

; <label>:41:                                     ; preds = %38
  %42 = load i32, i32* %4, align 4, !dbg !914
  %43 = call i32 @rand() #10, !dbg !916
  %44 = load i32, i32* %4, align 4, !dbg !917
  %45 = load i32, i32* %5, align 4, !dbg !918
  %46 = sub nsw i32 %44, %45, !dbg !919
  %47 = call i32 @abs(i32 %46) #1, !dbg !920
  %48 = add nsw i32 %47, 1, !dbg !922
  %49 = srem i32 %43, %48, !dbg !923
  %50 = sub nsw i32 %42, %49, !dbg !924
  store i32 %50, i32* %6, align 4, !dbg !925
  br label %61, !dbg !926

; <label>:51:                                     ; preds = %38
  %52 = load i32, i32* %4, align 4, !dbg !927
  %53 = call i32 @rand() #10, !dbg !929
  %54 = load i32, i32* %4, align 4, !dbg !930
  %55 = load i32, i32* %5, align 4, !dbg !931
  %56 = sub nsw i32 %54, %55, !dbg !932
  %57 = call i32 @abs(i32 %56) #1, !dbg !933
  %58 = add nsw i32 %57, 1, !dbg !935
  %59 = srem i32 %53, %58, !dbg !936
  %60 = add nsw i32 %52, %59, !dbg !937
  store i32 %60, i32* %6, align 4, !dbg !938
  br label %61

; <label>:61:                                     ; preds = %51, %41
  %62 = load i32, i32* %6, align 4, !dbg !939
  ret i32 %62, !dbg !940
}

; Function Attrs: inlinehint nounwind uwtable
define linkonce_odr i32 @_Z12getBitPosABR8DataType(i32) #6 comdat !dbg !132 {
  %2 = alloca i32, align 4
  %3 = alloca i32, align 4
  %4 = alloca i32, align 4
  %5 = alloca i32, align 4
  %6 = alloca i32, align 4
  %7 = alloca i32, align 4
  store i32 %0, i32* %2, align 4
  call void @llvm.dbg.declare(metadata i32* %2, metadata !941, metadata !177), !dbg !942
  call void @llvm.dbg.declare(metadata i32* %3, metadata !943, metadata !177), !dbg !944
  store i32 -1, i32* %3, align 4, !dbg !944
  call void @llvm.dbg.declare(metadata i32* %4, metadata !945, metadata !177), !dbg !946
  store i32 -1, i32* %4, align 4, !dbg !946
  call void @llvm.dbg.declare(metadata i32* %5, metadata !947, metadata !177), !dbg !948
  store i32 -1, i32* %5, align 4, !dbg !948
  call void @llvm.dbg.declare(metadata i32* %6, metadata !949, metadata !177), !dbg !950
  store i32 0, i32* %6, align 4, !dbg !950
  call void @llvm.dbg.declare(metadata i32* %7, metadata !951, metadata !177), !dbg !952
  store i32 -1, i32* %7, align 4, !dbg !952
  %8 = load i32, i32* %2, align 4, !dbg !953
  %9 = icmp eq i32 %8, 1, !dbg !955
  br i1 %9, label %10, label %11, !dbg !956

; <label>:10:                                     ; preds = %1
  store i32 7, i32* %5, align 4, !dbg !957
  br label %36, !dbg !959

; <label>:11:                                     ; preds = %1
  %12 = load i32, i32* %2, align 4, !dbg !960
  %13 = icmp eq i32 %12, 2, !dbg !963
  br i1 %13, label %14, label %15, !dbg !960

; <label>:14:                                     ; preds = %11
  store i32 15, i32* %5, align 4, !dbg !964
  br label %35, !dbg !966

; <label>:15:                                     ; preds = %11
  %16 = load i32, i32* %2, align 4, !dbg !967
  %17 = icmp eq i32 %16, 3, !dbg !970
  br i1 %17, label %18, label %19, !dbg !967

; <label>:18:                                     ; preds = %15
  store i32 31, i32* %5, align 4, !dbg !971
  br label %34, !dbg !973

; <label>:19:                                     ; preds = %15
  %20 = load i32, i32* %2, align 4, !dbg !974
  %21 = icmp eq i32 %20, 4, !dbg !977
  br i1 %21, label %22, label %23, !dbg !974

; <label>:22:                                     ; preds = %19
  store i32 63, i32* %5, align 4, !dbg !978
  br label %33, !dbg !980

; <label>:23:                                     ; preds = %19
  %24 = load i32, i32* %2, align 4, !dbg !981
  %25 = icmp eq i32 %24, 5, !dbg !984
  br i1 %25, label %26, label %27, !dbg !981

; <label>:26:                                     ; preds = %23
  store i32 31, i32* %5, align 4, !dbg !985
  br label %32, !dbg !987

; <label>:27:                                     ; preds = %23
  %28 = load i32, i32* %2, align 4, !dbg !988
  %29 = icmp eq i32 %28, 6, !dbg !991
  br i1 %29, label %30, label %31, !dbg !988

; <label>:30:                                     ; preds = %27
  store i32 63, i32* %5, align 4, !dbg !992
  br label %31, !dbg !994

; <label>:31:                                     ; preds = %30, %27
  br label %32

; <label>:32:                                     ; preds = %31, %26
  br label %33

; <label>:33:                                     ; preds = %32, %22
  br label %34

; <label>:34:                                     ; preds = %33, %18
  br label %35

; <label>:35:                                     ; preds = %34, %14
  br label %36

; <label>:36:                                     ; preds = %35, %10
  %37 = load i32, i32* @bu, align 4, !dbg !995
  %38 = load i32, i32* %5, align 4, !dbg !997
  %39 = icmp sle i32 %37, %38, !dbg !998
  br i1 %39, label %40, label %47, !dbg !999

; <label>:40:                                     ; preds = %36
  %41 = load i32, i32* @bl, align 4, !dbg !1000
  %42 = load i32, i32* %6, align 4, !dbg !1002
  %43 = icmp sge i32 %41, %42, !dbg !1003
  br i1 %43, label %44, label %47, !dbg !1004

; <label>:44:                                     ; preds = %40
  %45 = load i32, i32* @bl, align 4, !dbg !1005
  store i32 %45, i32* %3, align 4, !dbg !1007
  %46 = load i32, i32* @bu, align 4, !dbg !1008
  store i32 %46, i32* %4, align 4, !dbg !1009
  br label %50, !dbg !1010

; <label>:47:                                     ; preds = %40, %36
  %48 = load i32, i32* %6, align 4, !dbg !1011
  store i32 %48, i32* %3, align 4, !dbg !1013
  %49 = load i32, i32* %5, align 4, !dbg !1014
  store i32 %49, i32* %4, align 4, !dbg !1015
  br label %50

; <label>:50:                                     ; preds = %47, %44
  %51 = load i32, i32* %3, align 4, !dbg !1016
  %52 = call i32 @rand() #10, !dbg !1017
  %53 = load i32, i32* %4, align 4, !dbg !1018
  %54 = load i32, i32* %3, align 4, !dbg !1019
  %55 = sub nsw i32 %53, %54, !dbg !1020
  %56 = call i32 @abs(i32 %55) #1, !dbg !1021
  %57 = add nsw i32 %56, 1, !dbg !1023
  %58 = srem i32 %52, %57, !dbg !1024
  %59 = add nsw i32 %51, %58, !dbg !1025
  store i32 %59, i32* %7, align 4, !dbg !1026
  %60 = load i32, i32* %7, align 4, !dbg !1027
  ret i32 %60, !dbg !1028
}

; Function Attrs: nounwind
declare i32 @rand() #4

; Function Attrs: nounwind readnone
declare i32 @abs(i32) #9

; Function Attrs: inlinehint nounwind uwtable
define linkonce_odr i32 @_Z14getIntervalIdxx(i64) #6 comdat !dbg !119 {
  %2 = alloca i32, align 4
  %3 = alloca i64, align 8
  store i64 %0, i64* %3, align 8
  call void @llvm.dbg.declare(metadata i64* %3, metadata !1029, metadata !177), !dbg !1030
  %4 = load i64, i64* @intvsz, align 8, !dbg !1031
  %5 = icmp eq i64 %4, 0, !dbg !1033
  br i1 %5, label %6, label %7, !dbg !1034

; <label>:6:                                      ; preds = %1
  store i32 -1, i32* %2, align 4, !dbg !1035
  br label %14, !dbg !1035

; <label>:7:                                      ; preds = %1
  %8 = load i64, i64* %3, align 8, !dbg !1037
  %9 = load i64, i64* @intvsz, align 8, !dbg !1038
  %10 = sdiv i64 %8, %9, !dbg !1039
  %11 = sitofp i64 %10 to double, !dbg !1037
  %12 = call double @floor(double %11) #1, !dbg !1040
  %13 = fptosi double %12 to i32, !dbg !1040
  store i32 %13, i32* %2, align 4, !dbg !1041
  br label %14, !dbg !1041

; <label>:14:                                     ; preds = %7, %6
  %15 = load i32, i32* %2, align 4, !dbg !1042
  ret i32 %15, !dbg !1042
}

; Function Attrs: nounwind readnone
declare double @floor(double) #9

; Function Attrs: nounwind readonly
declare i32 @memcmp(i8*, i8*, i64) #7

; Function Attrs: nounwind
declare i64 @time(i64*) #4

; Function Attrs: nounwind
declare void @srand(i32) #4

; Function Attrs: inlinehint nounwind uwtable
define linkonce_odr void @_Z15updateTimeStampv() #6 comdat !dbg !99 {
  %1 = alloca %struct.timeval, align 8
  call void @llvm.dbg.declare(metadata %struct.timeval* %1, metadata !1043, metadata !177), !dbg !1044
  %2 = call i32 @gettimeofday(%struct.timeval* %1, %struct.timezone* null) #10, !dbg !1045
  %3 = getelementptr inbounds %struct.timeval, %struct.timeval* %1, i32 0, i32 0, !dbg !1046
  %4 = load i64, i64* %3, align 8, !dbg !1046
  %5 = mul nsw i64 1000000, %4, !dbg !1047
  %6 = getelementptr inbounds %struct.timeval, %struct.timeval* %1, i32 0, i32 1, !dbg !1048
  %7 = load i64, i64* %6, align 8, !dbg !1048
  %8 = add nsw i64 %5, %7, !dbg !1049
  store i64 %8, i64* @execKey, align 8, !dbg !1050
  ret void, !dbg !1051
}

declare i64 @getline(i8**, i64*, %struct._IO_FILE*) #3

; Function Attrs: inlinehint nounwind uwtable
define linkonce_odr i8* @_Z18getStrFieldByIndexPcPKci(i8*, i8*, i32) #6 comdat !dbg !100 {
  %4 = alloca i8*, align 8
  %5 = alloca i8*, align 8
  %6 = alloca i8*, align 8
  %7 = alloca i32, align 4
  %8 = alloca [1024 x i8], align 16
  %9 = alloca i8*, align 8
  %10 = alloca i32, align 4
  store i8* %0, i8** %5, align 8
  call void @llvm.dbg.declare(metadata i8** %5, metadata !1052, metadata !177), !dbg !1053
  store i8* %1, i8** %6, align 8
  call void @llvm.dbg.declare(metadata i8** %6, metadata !1054, metadata !177), !dbg !1055
  store i32 %2, i32* %7, align 4
  call void @llvm.dbg.declare(metadata i32* %7, metadata !1056, metadata !177), !dbg !1057
  call void @llvm.dbg.declare(metadata [1024 x i8]* %8, metadata !1058, metadata !177), !dbg !1059
  call void @llvm.dbg.declare(metadata i8** %9, metadata !1060, metadata !177), !dbg !1061
  call void @llvm.dbg.declare(metadata i32* %10, metadata !1062, metadata !177), !dbg !1063
  store i32 -1, i32* %10, align 4, !dbg !1063
  %11 = getelementptr inbounds [1024 x i8], [1024 x i8]* %8, i32 0, i32 0, !dbg !1064
  %12 = load i8*, i8** %5, align 8, !dbg !1065
  %13 = call i8* @strcpy(i8* %11, i8* %12) #10, !dbg !1066
  %14 = getelementptr inbounds [1024 x i8], [1024 x i8]* %8, i32 0, i32 0, !dbg !1067
  %15 = load i8*, i8** %6, align 8, !dbg !1068
  %16 = call i8* @strtok(i8* %14, i8* %15) #10, !dbg !1069
  store i8* %16, i8** %9, align 8, !dbg !1070
  br label %17, !dbg !1071

; <label>:17:                                     ; preds = %28, %3
  %18 = load i8*, i8** %9, align 8, !dbg !1072
  %19 = icmp ne i8* %18, null, !dbg !1074
  br i1 %19, label %20, label %31, !dbg !1075

; <label>:20:                                     ; preds = %17
  %21 = load i32, i32* %10, align 4, !dbg !1076
  %22 = add nsw i32 %21, 1, !dbg !1076
  store i32 %22, i32* %10, align 4, !dbg !1076
  %23 = load i32, i32* %7, align 4, !dbg !1078
  %24 = load i32, i32* %10, align 4, !dbg !1080
  %25 = icmp eq i32 %23, %24, !dbg !1081
  br i1 %25, label %26, label %28, !dbg !1082

; <label>:26:                                     ; preds = %20
  %27 = load i8*, i8** %9, align 8, !dbg !1083
  store i8* %27, i8** %4, align 8, !dbg !1085
  br label %32, !dbg !1085

; <label>:28:                                     ; preds = %20
  %29 = load i8*, i8** %6, align 8, !dbg !1086
  %30 = call i8* @strtok(i8* null, i8* %29) #10, !dbg !1087
  store i8* %30, i8** %9, align 8, !dbg !1088
  br label %17, !dbg !1089

; <label>:31:                                     ; preds = %17
  store i8* null, i8** %4, align 8, !dbg !1091
  br label %32, !dbg !1091

; <label>:32:                                     ; preds = %31, %26
  %33 = load i8*, i8** %4, align 8, !dbg !1092
  ret i8* %33, !dbg !1092
}

; Function Attrs: inlinehint nounwind uwtable
define linkonce_odr void @_Z13processParamsPKcS0_(i8*, i8*) #6 comdat !dbg !103 {
  %3 = alloca i8*, align 8
  %4 = alloca i8*, align 8
  store i8* %0, i8** %3, align 8
  call void @llvm.dbg.declare(metadata i8** %3, metadata !1093, metadata !177), !dbg !1094
  store i8* %1, i8** %4, align 8
  call void @llvm.dbg.declare(metadata i8** %4, metadata !1095, metadata !177), !dbg !1096
  %5 = load i8*, i8** %3, align 8, !dbg !1097
  %6 = call i32 @strcmp(i8* %5, i8* getelementptr inbounds ([4 x i8], [4 x i8]* @.str.39, i32 0, i32 0)) #16, !dbg !1099
  %7 = icmp ne i32 %6, 0, !dbg !1099
  br i1 %7, label %27, label %8, !dbg !1100

; <label>:8:                                      ; preds = %2
  %9 = load i8*, i8** %4, align 8, !dbg !1101
  %10 = call i32 @strcmp(i8* %9, i8* getelementptr inbounds ([4 x i8], [4 x i8]* @.str.40, i32 0, i32 0)) #16, !dbg !1104
  %11 = icmp ne i32 %10, 0, !dbg !1104
  br i1 %11, label %13, label %12, !dbg !1105

; <label>:12:                                     ; preds = %8
  store i32 0, i32* @fialg, align 4, !dbg !1106
  br label %26, !dbg !1108

; <label>:13:                                     ; preds = %8
  %14 = load i8*, i8** %4, align 8, !dbg !1109
  %15 = call i32 @strcmp(i8* %14, i8* getelementptr inbounds ([4 x i8], [4 x i8]* @.str.41, i32 0, i32 0)) #16, !dbg !1112
  %16 = icmp ne i32 %15, 0, !dbg !1112
  br i1 %16, label %18, label %17, !dbg !1113

; <label>:17:                                     ; preds = %13
  store i32 1, i32* @fialg, align 4, !dbg !1114
  br label %25, !dbg !1116

; <label>:18:                                     ; preds = %13
  %19 = load i8*, i8** %4, align 8, !dbg !1117
  %20 = call i32 @strcmp(i8* %19, i8* getelementptr inbounds ([4 x i8], [4 x i8]* @.str.42, i32 0, i32 0)) #16, !dbg !1120
  %21 = icmp ne i32 %20, 0, !dbg !1120
  br i1 %21, label %23, label %22, !dbg !1121

; <label>:22:                                     ; preds = %18
  store i32 2, i32* @fialg, align 4, !dbg !1122
  br label %24, !dbg !1124

; <label>:23:                                     ; preds = %18
  store i32 3, i32* @fialg, align 4, !dbg !1125
  br label %24

; <label>:24:                                     ; preds = %23, %22
  br label %25

; <label>:25:                                     ; preds = %24, %17
  br label %26

; <label>:26:                                     ; preds = %25, %12
  br label %147, !dbg !1127

; <label>:27:                                     ; preds = %2
  %28 = load i8*, i8** %3, align 8, !dbg !1128
  %29 = call i32 @strcmp(i8* %28, i8* getelementptr inbounds ([4 x i8], [4 x i8]* @.str.43, i32 0, i32 0)) #16, !dbg !1131
  %30 = icmp ne i32 %29, 0, !dbg !1131
  br i1 %30, label %80, label %31, !dbg !1132

; <label>:31:                                     ; preds = %27
  %32 = load i8*, i8** %4, align 8, !dbg !1133
  %33 = call i32 @strcmp(i8* %32, i8* getelementptr inbounds ([2 x i8], [2 x i8]* @.str.44, i32 0, i32 0)) #16, !dbg !1136
  %34 = icmp ne i32 %33, 0, !dbg !1136
  br i1 %34, label %36, label %35, !dbg !1137

; <label>:35:                                     ; preds = %31
  store i32 1, i32* @fibr, align 4, !dbg !1138
  br label %79, !dbg !1140

; <label>:36:                                     ; preds = %31
  %37 = load i8*, i8** %4, align 8, !dbg !1141
  %38 = call i32 @strcmp(i8* %37, i8* getelementptr inbounds ([2 x i8], [2 x i8]* @.str.45, i32 0, i32 0)) #16, !dbg !1144
  %39 = icmp ne i32 %38, 0, !dbg !1144
  br i1 %39, label %41, label %40, !dbg !1145

; <label>:40:                                     ; preds = %36
  store i32 2, i32* @fibr, align 4, !dbg !1146
  br label %78, !dbg !1148

; <label>:41:                                     ; preds = %36
  %42 = load i8*, i8** %4, align 8, !dbg !1149
  %43 = call i32 @strcmp(i8* %42, i8* getelementptr inbounds ([2 x i8], [2 x i8]* @.str.46, i32 0, i32 0)) #16, !dbg !1152
  %44 = icmp ne i32 %43, 0, !dbg !1152
  br i1 %44, label %46, label %45, !dbg !1153

; <label>:45:                                     ; preds = %41
  store i32 3, i32* @fibr, align 4, !dbg !1154
  br label %77, !dbg !1156

; <label>:46:                                     ; preds = %41
  %47 = load i8*, i8** %4, align 8, !dbg !1157
  %48 = call i32 @strcmp(i8* %47, i8* getelementptr inbounds ([2 x i8], [2 x i8]* @.str.47, i32 0, i32 0)) #16, !dbg !1160
  %49 = icmp ne i32 %48, 0, !dbg !1160
  br i1 %49, label %51, label %50, !dbg !1161

; <label>:50:                                     ; preds = %46
  store i32 4, i32* @fibr, align 4, !dbg !1162
  br label %76, !dbg !1164

; <label>:51:                                     ; preds = %46
  %52 = load i8*, i8** %4, align 8, !dbg !1165
  %53 = call i32 @strcmp(i8* %52, i8* getelementptr inbounds ([2 x i8], [2 x i8]* @.str.48, i32 0, i32 0)) #16, !dbg !1168
  %54 = icmp ne i32 %53, 0, !dbg !1168
  br i1 %54, label %56, label %55, !dbg !1169

; <label>:55:                                     ; preds = %51
  store i32 5, i32* @fibr, align 4, !dbg !1170
  br label %75, !dbg !1172

; <label>:56:                                     ; preds = %51
  %57 = load i8*, i8** %4, align 8, !dbg !1173
  %58 = call i32 @strcmp(i8* %57, i8* getelementptr inbounds ([2 x i8], [2 x i8]* @.str.49, i32 0, i32 0)) #16, !dbg !1176
  %59 = icmp ne i32 %58, 0, !dbg !1176
  br i1 %59, label %61, label %60, !dbg !1177

; <label>:60:                                     ; preds = %56
  store i32 6, i32* @fibr, align 4, !dbg !1178
  br label %74, !dbg !1180

; <label>:61:                                     ; preds = %56
  %62 = load i8*, i8** %4, align 8, !dbg !1181
  %63 = call i32 @strcmp(i8* %62, i8* getelementptr inbounds ([2 x i8], [2 x i8]* @.str.50, i32 0, i32 0)) #16, !dbg !1184
  %64 = icmp ne i32 %63, 0, !dbg !1184
  br i1 %64, label %66, label %65, !dbg !1185

; <label>:65:                                     ; preds = %61
  store i32 7, i32* @fibr, align 4, !dbg !1186
  br label %73, !dbg !1188

; <label>:66:                                     ; preds = %61
  %67 = load i8*, i8** %4, align 8, !dbg !1189
  %68 = call i32 @strcmp(i8* %67, i8* getelementptr inbounds ([2 x i8], [2 x i8]* @.str.51, i32 0, i32 0)) #16, !dbg !1192
  %69 = icmp ne i32 %68, 0, !dbg !1192
  br i1 %69, label %71, label %70, !dbg !1193

; <label>:70:                                     ; preds = %66
  store i32 8, i32* @fibr, align 4, !dbg !1194
  br label %72, !dbg !1196

; <label>:71:                                     ; preds = %66
  store i32 9, i32* @fibr, align 4, !dbg !1197
  br label %72

; <label>:72:                                     ; preds = %71, %70
  br label %73

; <label>:73:                                     ; preds = %72, %65
  br label %74

; <label>:74:                                     ; preds = %73, %60
  br label %75

; <label>:75:                                     ; preds = %74, %55
  br label %76

; <label>:76:                                     ; preds = %75, %50
  br label %77

; <label>:77:                                     ; preds = %76, %45
  br label %78

; <label>:78:                                     ; preds = %77, %40
  br label %79

; <label>:79:                                     ; preds = %78, %35
  br label %146, !dbg !1199

; <label>:80:                                     ; preds = %27
  %81 = load i8*, i8** %3, align 8, !dbg !1200
  %82 = call i32 @strcmp(i8* %81, i8* getelementptr inbounds ([4 x i8], [4 x i8]* @.str.52, i32 0, i32 0)) #16, !dbg !1203
  %83 = icmp ne i32 %82, 0, !dbg !1203
  br i1 %83, label %97, label %84, !dbg !1204

; <label>:84:                                     ; preds = %80
  %85 = load i8*, i8** %4, align 8, !dbg !1205
  %86 = call i32 @strcmp(i8* %85, i8* getelementptr inbounds ([4 x i8], [4 x i8]* @.str.53, i32 0, i32 0)) #16, !dbg !1208
  %87 = icmp ne i32 %86, 0, !dbg !1208
  br i1 %87, label %89, label %88, !dbg !1209

; <label>:88:                                     ; preds = %84
  store i32 0, i32* @fid, align 4, !dbg !1210
  br label %96, !dbg !1212

; <label>:89:                                     ; preds = %84
  %90 = load i8*, i8** %4, align 8, !dbg !1213
  %91 = call i32 @strcmp(i8* %90, i8* getelementptr inbounds ([4 x i8], [4 x i8]* @.str.54, i32 0, i32 0)) #16, !dbg !1216
  %92 = icmp ne i32 %91, 0, !dbg !1216
  br i1 %92, label %94, label %93, !dbg !1217

; <label>:93:                                     ; preds = %89
  store i32 1, i32* @fid, align 4, !dbg !1218
  br label %95, !dbg !1220

; <label>:94:                                     ; preds = %89
  store i32 2, i32* @fid, align 4, !dbg !1221
  br label %95

; <label>:95:                                     ; preds = %94, %93
  br label %96

; <label>:96:                                     ; preds = %95, %88
  br label %145, !dbg !1223

; <label>:97:                                     ; preds = %80
  %98 = load i8*, i8** %3, align 8, !dbg !1224
  %99 = call i32 @strcmp(i8* %98, i8* getelementptr inbounds ([4 x i8], [4 x i8]* @.str.55, i32 0, i32 0)) #16, !dbg !1227
  %100 = icmp ne i32 %99, 0, !dbg !1227
  br i1 %100, label %104, label %101, !dbg !1228

; <label>:101:                                    ; preds = %97
  %102 = load i8*, i8** %4, align 8, !dbg !1229
  %103 = call i32 @atoi(i8* %102) #16, !dbg !1231
  store i32 %103, i32* @bu, align 4, !dbg !1232
  br label %144, !dbg !1233

; <label>:104:                                    ; preds = %97
  %105 = load i8*, i8** %3, align 8, !dbg !1234
  %106 = call i32 @strcmp(i8* %105, i8* getelementptr inbounds ([4 x i8], [4 x i8]* @.str.56, i32 0, i32 0)) #16, !dbg !1237
  %107 = icmp ne i32 %106, 0, !dbg !1237
  br i1 %107, label %111, label %108, !dbg !1238

; <label>:108:                                    ; preds = %104
  %109 = load i8*, i8** %4, align 8, !dbg !1239
  %110 = call i32 @atoi(i8* %109) #16, !dbg !1241
  store i32 %110, i32* @bl, align 4, !dbg !1242
  br label %143, !dbg !1243

; <label>:111:                                    ; preds = %104
  %112 = load i8*, i8** %3, align 8, !dbg !1244
  %113 = call i32 @strcmp(i8* %112, i8* getelementptr inbounds ([3 x i8], [3 x i8]* @.str.57, i32 0, i32 0)) #16, !dbg !1247
  %114 = icmp ne i32 %113, 0, !dbg !1247
  br i1 %114, label %118, label %115, !dbg !1248

; <label>:115:                                    ; preds = %111
  %116 = load i8*, i8** %4, align 8, !dbg !1249
  %117 = call i64 @atoll(i8* %116) #16, !dbg !1251
  store i64 %117, i64* @ef, align 8, !dbg !1252
  br label %142, !dbg !1253

; <label>:118:                                    ; preds = %111
  %119 = load i8*, i8** %3, align 8, !dbg !1254
  %120 = call i32 @strcmp(i8* %119, i8* getelementptr inbounds ([3 x i8], [3 x i8]* @.str.58, i32 0, i32 0)) #16, !dbg !1257
  %121 = icmp ne i32 %120, 0, !dbg !1257
  br i1 %121, label %125, label %122, !dbg !1258

; <label>:122:                                    ; preds = %118
  %123 = load i8*, i8** %4, align 8, !dbg !1259
  %124 = call i64 @atoll(i8* %123) #16, !dbg !1261
  store i64 %124, i64* @tf, align 8, !dbg !1262
  br label %141, !dbg !1263

; <label>:125:                                    ; preds = %118
  %126 = load i8*, i8** %3, align 8, !dbg !1264
  %127 = call i32 @strcmp(i8* %126, i8* getelementptr inbounds ([4 x i8], [4 x i8]* @.str.59, i32 0, i32 0)) #16, !dbg !1267
  %128 = icmp ne i32 %127, 0, !dbg !1267
  br i1 %128, label %132, label %129, !dbg !1268

; <label>:129:                                    ; preds = %125
  %130 = load i8*, i8** %4, align 8, !dbg !1269
  %131 = call i32 @atoi(i8* %130) #16, !dbg !1271
  store i32 %131, i32* @pfs, align 4, !dbg !1272
  br label %140, !dbg !1273

; <label>:132:                                    ; preds = %125
  %133 = load i8*, i8** %3, align 8, !dbg !1274
  %134 = call i32 @strcmp(i8* %133, i8* getelementptr inbounds ([3 x i8], [3 x i8]* @.str.60, i32 0, i32 0)) #16, !dbg !1277
  %135 = icmp ne i32 %134, 0, !dbg !1277
  br i1 %135, label %139, label %136, !dbg !1278

; <label>:136:                                    ; preds = %132
  %137 = load i8*, i8** %4, align 8, !dbg !1279
  %138 = call i64 @atoll(i8* %137) #16, !dbg !1281
  store i64 %138, i64* @dynFSCount, align 8, !dbg !1282
  br label %139, !dbg !1283

; <label>:139:                                    ; preds = %136, %132
  br label %140

; <label>:140:                                    ; preds = %139, %129
  br label %141

; <label>:141:                                    ; preds = %140, %122
  br label %142

; <label>:142:                                    ; preds = %141, %115
  br label %143

; <label>:143:                                    ; preds = %142, %108
  br label %144

; <label>:144:                                    ; preds = %143, %101
  br label %145

; <label>:145:                                    ; preds = %144, %96
  br label %146

; <label>:146:                                    ; preds = %145, %79
  br label %147

; <label>:147:                                    ; preds = %146, %26
  ret void, !dbg !1284
}

; Function Attrs: inlinehint uwtable
define linkonce_odr void @_Z11updateFSIdxv() #2 comdat !dbg !106 {
  %1 = alloca i32, align 4
  %2 = alloca i32, align 4
  %3 = alloca i64, align 8
  %4 = alloca i64, align 8
  %5 = alloca i64, align 8
  call void @llvm.dbg.declare(metadata i32* %1, metadata !1285, metadata !177), !dbg !1286
  call void @llvm.dbg.declare(metadata i32* %2, metadata !1287, metadata !177), !dbg !1288
  call void @llvm.dbg.declare(metadata i64* %3, metadata !1289, metadata !177), !dbg !1290
  store i64 0, i64* %3, align 8, !dbg !1290
  call void @llvm.dbg.declare(metadata i64* %4, metadata !1291, metadata !177), !dbg !1292
  store i64 0, i64* %4, align 8, !dbg !1292
  call void @llvm.dbg.declare(metadata i64* %5, metadata !1293, metadata !177), !dbg !1294
  store i64 0, i64* %5, align 8, !dbg !1294
  %6 = load i64, i64* @intvCount, align 8, !dbg !1295
  %7 = icmp sgt i64 %6, 0, !dbg !1297
  br i1 %7, label %8, label %17, !dbg !1298

; <label>:8:                                      ; preds = %0
  %9 = load i64, i64* @ef, align 8, !dbg !1299
  %10 = icmp sgt i64 %9, 0, !dbg !1301
  br i1 %10, label %11, label %17, !dbg !1302

; <label>:11:                                     ; preds = %8
  %12 = load i64, i64* @intvCount, align 8, !dbg !1303
  %13 = load i64, i64* @ef, align 8, !dbg !1305
  %14 = mul nsw i64 %12, %13, !dbg !1306
  %15 = call noalias i8* @calloc(i64 %14, i64 8) #10, !dbg !1307
  %16 = bitcast i8* %15 to i64*, !dbg !1308
  store i64* %16, i64** @dynFSIdx, align 8, !dbg !1309
  br label %17, !dbg !1310

; <label>:17:                                     ; preds = %11, %8, %0
  %18 = load i64*, i64** @dynFSIdx, align 8, !dbg !1311
  %19 = icmp eq i64* %18, null, !dbg !1313
  br i1 %19, label %20, label %22, !dbg !1314

; <label>:20:                                     ; preds = %17
  %21 = call i32 (i8*, ...) @printf(i8* getelementptr inbounds ([48 x i8], [48 x i8]* @.str.34, i32 0, i32 0)), !dbg !1315
  call void @exit(i32 -1) #15, !dbg !1317
  unreachable, !dbg !1317

; <label>:22:                                     ; preds = %17
  store i32 0, i32* %1, align 4, !dbg !1318
  br label %23, !dbg !1320

; <label>:23:                                     ; preds = %72, %22
  %24 = load i32, i32* %1, align 4, !dbg !1321
  %25 = sext i32 %24 to i64, !dbg !1321
  %26 = load i64, i64* @intvCount, align 8, !dbg !1324
  %27 = icmp slt i64 %25, %26, !dbg !1325
  br i1 %27, label %28, label %75, !dbg !1326

; <label>:28:                                     ; preds = %23
  store i32 0, i32* %2, align 4, !dbg !1327
  br label %29, !dbg !1330

; <label>:29:                                     ; preds = %68, %28
  %30 = load i32, i32* %2, align 4, !dbg !1331
  %31 = sext i32 %30 to i64, !dbg !1331
  %32 = load i64, i64* @ef, align 8, !dbg !1334
  %33 = icmp slt i64 %31, %32, !dbg !1335
  br i1 %33, label %34, label %71, !dbg !1336

; <label>:34:                                     ; preds = %29
  %35 = call i64 @_Z12gen64bitRandv(), !dbg !1337
  store i64 %35, i64* %5, align 8, !dbg !1339
  %36 = load i64, i64* @intvsz, align 8, !dbg !1340
  %37 = icmp sgt i64 %36, 0, !dbg !1342
  br i1 %37, label %38, label %67, !dbg !1343

; <label>:38:                                     ; preds = %34
  %39 = load i64, i64* @intvsz, align 8, !dbg !1344
  %40 = load i32, i32* %1, align 4, !dbg !1346
  %41 = sext i32 %40 to i64, !dbg !1346
  %42 = mul nsw i64 %39, %41, !dbg !1347
  store i64 %42, i64* %4, align 8, !dbg !1348
  %43 = load i64, i64* %5, align 8, !dbg !1349
  %44 = load i64, i64* @intvsz, align 8, !dbg !1350
  %45 = srem i64 %43, %44, !dbg !1351
  store i64 %45, i64* %3, align 8, !dbg !1352
  %46 = load i64, i64* %3, align 8, !dbg !1353
  %47 = icmp slt i64 %46, 0, !dbg !1355
  br i1 %47, label %48, label %51, !dbg !1356

; <label>:48:                                     ; preds = %38
  %49 = load i64, i64* %3, align 8, !dbg !1357
  %50 = sub nsw i64 0, %49, !dbg !1360
  store i64 %50, i64* %3, align 8, !dbg !1361
  br label %51, !dbg !1362

; <label>:51:                                     ; preds = %48, %38
  %52 = load i64, i64* %3, align 8, !dbg !1363
  %53 = add nsw i64 %52, 1, !dbg !1363
  store i64 %53, i64* %3, align 8, !dbg !1363
  %54 = load i64, i64* %3, align 8, !dbg !1364
  %55 = load i64, i64* %4, align 8, !dbg !1365
  %56 = add nsw i64 %54, %55, !dbg !1366
  store i64 %56, i64* %3, align 8, !dbg !1367
  %57 = load i64, i64* %3, align 8, !dbg !1368
  %58 = load i32, i32* %1, align 4, !dbg !1369
  %59 = sext i32 %58 to i64, !dbg !1369
  %60 = load i64, i64* @ef, align 8, !dbg !1370
  %61 = mul nsw i64 %59, %60, !dbg !1371
  %62 = load i32, i32* %2, align 4, !dbg !1372
  %63 = sext i32 %62 to i64, !dbg !1372
  %64 = add nsw i64 %61, %63, !dbg !1373
  %65 = load i64*, i64** @dynFSIdx, align 8, !dbg !1374
  %66 = getelementptr inbounds i64, i64* %65, i64 %64, !dbg !1374
  store i64 %57, i64* %66, align 8, !dbg !1375
  br label %67, !dbg !1376

; <label>:67:                                     ; preds = %51, %34
  br label %68, !dbg !1377

; <label>:68:                                     ; preds = %67
  %69 = load i32, i32* %2, align 4, !dbg !1378
  %70 = add nsw i32 %69, 1, !dbg !1378
  store i32 %70, i32* %2, align 4, !dbg !1378
  br label %29, !dbg !1380

; <label>:71:                                     ; preds = %29
  br label %72, !dbg !1381

; <label>:72:                                     ; preds = %71
  %73 = load i32, i32* %1, align 4, !dbg !1382
  %74 = add nsw i32 %73, 1, !dbg !1382
  store i32 %74, i32* %1, align 4, !dbg !1382
  br label %23, !dbg !1384

; <label>:75:                                     ; preds = %23
  ret void, !dbg !1385
}

; Function Attrs: inlinehint uwtable
define linkonce_odr i32 @_Z11file_existsPKc(i8*) #2 comdat !dbg !110 {
  %2 = alloca i32, align 4
  %3 = alloca i8*, align 8
  %4 = alloca %struct._IO_FILE*, align 8
  store i8* %0, i8** %3, align 8
  call void @llvm.dbg.declare(metadata i8** %3, metadata !1386, metadata !177), !dbg !1387
  call void @llvm.dbg.declare(metadata %struct._IO_FILE** %4, metadata !1388, metadata !177), !dbg !1389
  %5 = load i8*, i8** %3, align 8, !dbg !1390
  %6 = call %struct._IO_FILE* @fopen(i8* %5, i8* getelementptr inbounds ([2 x i8], [2 x i8]* @.str.31, i32 0, i32 0)), !dbg !1391
  store %struct._IO_FILE* %6, %struct._IO_FILE** %4, align 8, !dbg !1389
  %7 = load %struct._IO_FILE*, %struct._IO_FILE** %4, align 8, !dbg !1392
  %8 = icmp ne %struct._IO_FILE* %7, null, !dbg !1394
  br i1 %8, label %9, label %12, !dbg !1395

; <label>:9:                                      ; preds = %1
  %10 = load %struct._IO_FILE*, %struct._IO_FILE** %4, align 8, !dbg !1396
  %11 = call i32 @fclose(%struct._IO_FILE* %10), !dbg !1398
  store i32 1, i32* %2, align 4, !dbg !1399
  br label %13, !dbg !1399

; <label>:12:                                     ; preds = %1
  store i32 0, i32* %2, align 4, !dbg !1400
  br label %13, !dbg !1400

; <label>:13:                                     ; preds = %12, %9
  %14 = load i32, i32* %2, align 4, !dbg !1401
  ret i32 %14, !dbg !1401
}

; Function Attrs: inlinehint uwtable
define linkonce_odr void @_Z11printParamsv() #2 comdat !dbg !113 {
  %1 = load i32, i32* @fialg, align 4, !dbg !1402
  %2 = call i32 (i8*, ...) @printf(i8* getelementptr inbounds ([31 x i8], [31 x i8]* @.str.61, i32 0, i32 0), i32 %1), !dbg !1403
  %3 = load i32, i32* @fibr, align 4, !dbg !1404
  %4 = call i32 (i8*, ...) @printf(i8* getelementptr inbounds ([16 x i8], [16 x i8]* @.str.62, i32 0, i32 0), i32 %3), !dbg !1405
  %5 = load i32, i32* @fid, align 4, !dbg !1406
  %6 = call i32 (i8*, ...) @printf(i8* getelementptr inbounds ([20 x i8], [20 x i8]* @.str.63, i32 0, i32 0), i32 %5), !dbg !1407
  %7 = load i64, i64* @ef, align 8, !dbg !1408
  %8 = load i64, i64* @tf, align 8, !dbg !1409
  %9 = call i32 (i8*, ...) @printf(i8* getelementptr inbounds ([24 x i8], [24 x i8]* @.str.64, i32 0, i32 0), i64 %7, i64 %8), !dbg !1410
  %10 = load i32, i32* @bl, align 4, !dbg !1411
  %11 = load i32, i32* @bu, align 4, !dbg !1412
  %12 = call i32 (i8*, ...) @printf(i8* getelementptr inbounds ([54 x i8], [54 x i8]* @.str.65, i32 0, i32 0), i32 %10, i32 %11), !dbg !1413
  %13 = load i32, i32* @pfs, align 4, !dbg !1414
  %14 = call i32 (i8*, ...) @printf(i8* getelementptr inbounds ([35 x i8], [35 x i8]* @.str.66, i32 0, i32 0), i32 %13), !dbg !1415
  ret void, !dbg !1416
}

; Function Attrs: inlinehint nounwind uwtable
define linkonce_odr void @_Z11checkParamsv() #6 comdat !dbg !114 {
  %1 = load i32, i32* @fialg, align 4, !dbg !1417
  %2 = icmp ne i32 %1, 3, !dbg !1417
  br i1 %2, label %3, label %4, !dbg !1417

; <label>:3:                                      ; preds = %0
  br label %6, !dbg !1418

; <label>:4:                                      ; preds = %0
  call void @__assert_fail(i8* getelementptr inbounds ([57 x i8], [57 x i8]* @.str.67, i32 0, i32 0), i8* getelementptr inbounds ([57 x i8], [57 x i8]* @.str.68, i32 0, i32 0), i32 288, i8* getelementptr inbounds ([19 x i8], [19 x i8]* @__PRETTY_FUNCTION__._Z11checkParamsv, i32 0, i32 0)) #15, !dbg !1420
  unreachable, !dbg !1420
                                                  ; No predecessors!
  br label %6, !dbg !1422

; <label>:6:                                      ; preds = %5, %3
  %7 = load i32, i32* @fibr, align 4, !dbg !1424
  %8 = icmp ne i32 %7, 9, !dbg !1424
  br i1 %8, label %9, label %10, !dbg !1424

; <label>:9:                                      ; preds = %6
  br label %12, !dbg !1425

; <label>:10:                                     ; preds = %6
  call void @__assert_fail(i8* getelementptr inbounds ([43 x i8], [43 x i8]* @.str.69, i32 0, i32 0), i8* getelementptr inbounds ([57 x i8], [57 x i8]* @.str.68, i32 0, i32 0), i32 289, i8* getelementptr inbounds ([19 x i8], [19 x i8]* @__PRETTY_FUNCTION__._Z11checkParamsv, i32 0, i32 0)) #15, !dbg !1426
  unreachable, !dbg !1426
                                                  ; No predecessors!
  br label %12, !dbg !1427

; <label>:12:                                     ; preds = %11, %9
  %13 = load i32, i32* @fid, align 4, !dbg !1428
  %14 = icmp ne i32 %13, 2, !dbg !1428
  br i1 %14, label %15, label %16, !dbg !1428

; <label>:15:                                     ; preds = %12
  br label %18, !dbg !1429

; <label>:16:                                     ; preds = %12
  call void @__assert_fail(i8* getelementptr inbounds ([45 x i8], [45 x i8]* @.str.70, i32 0, i32 0), i8* getelementptr inbounds ([57 x i8], [57 x i8]* @.str.68, i32 0, i32 0), i32 290, i8* getelementptr inbounds ([19 x i8], [19 x i8]* @__PRETTY_FUNCTION__._Z11checkParamsv, i32 0, i32 0)) #15, !dbg !1430
  unreachable, !dbg !1430
                                                  ; No predecessors!
  br label %18, !dbg !1431

; <label>:18:                                     ; preds = %17, %15
  %19 = load i32, i32* @bu, align 4, !dbg !1432
  %20 = load i32, i32* @bl, align 4, !dbg !1432
  %21 = icmp sge i32 %19, %20, !dbg !1432
  br i1 %21, label %22, label %28, !dbg !1432

; <label>:22:                                     ; preds = %18
  %23 = load i32, i32* @bu, align 4, !dbg !1433
  %24 = icmp sle i32 %23, 63, !dbg !1433
  br i1 %24, label %25, label %28, !dbg !1433

; <label>:25:                                     ; preds = %22
  %26 = load i32, i32* @bl, align 4, !dbg !1434
  %27 = icmp sge i32 %26, 0, !dbg !1434
  br i1 %27, label %31, label %28, !dbg !1434

; <label>:28:                                     ; preds = %25, %22, %18
  %29 = load i32, i32* @fialg, align 4, !dbg !1435
  %30 = icmp ne i32 %29, 1, !dbg !1435
  br i1 %30, label %31, label %32, !dbg !1435

; <label>:31:                                     ; preds = %28, %25
  br label %34, !dbg !1436

; <label>:32:                                     ; preds = %28
  call void @__assert_fail(i8* getelementptr inbounds ([71 x i8], [71 x i8]* @.str.71, i32 0, i32 0), i8* getelementptr inbounds ([57 x i8], [57 x i8]* @.str.68, i32 0, i32 0), i32 291, i8* getelementptr inbounds ([19 x i8], [19 x i8]* @__PRETTY_FUNCTION__._Z11checkParamsv, i32 0, i32 0)) #15, !dbg !1438
  unreachable, !dbg !1438
                                                  ; No predecessors!
  br label %34, !dbg !1440

; <label>:34:                                     ; preds = %33, %31
  %35 = load i64, i64* @ef, align 8, !dbg !1442
  %36 = load i64, i64* @tf, align 8, !dbg !1442
  %37 = icmp sle i64 %35, %36, !dbg !1442
  br i1 %37, label %38, label %45, !dbg !1442

; <label>:38:                                     ; preds = %34
  %39 = load i64, i64* @ef, align 8, !dbg !1443
  %40 = icmp sgt i64 %39, 0, !dbg !1443
  br i1 %40, label %41, label %45, !dbg !1443

; <label>:41:                                     ; preds = %38
  %42 = load i64, i64* @tf, align 8, !dbg !1444
  %43 = icmp sgt i64 %42, 0, !dbg !1444
  br i1 %43, label %44, label %45, !dbg !1444

; <label>:44:                                     ; preds = %41
  br label %47, !dbg !1445

; <label>:45:                                     ; preds = %41, %38, %34
  call void @__assert_fail(i8* getelementptr inbounds ([62 x i8], [62 x i8]* @.str.72, i32 0, i32 0), i8* getelementptr inbounds ([57 x i8], [57 x i8]* @.str.68, i32 0, i32 0), i32 292, i8* getelementptr inbounds ([19 x i8], [19 x i8]* @__PRETTY_FUNCTION__._Z11checkParamsv, i32 0, i32 0)) #15, !dbg !1446
  unreachable, !dbg !1446
                                                  ; No predecessors!
  br label %47, !dbg !1447

; <label>:47:                                     ; preds = %46, %44
  %48 = load i32, i32* @pfs, align 4, !dbg !1448
  %49 = icmp eq i32 %48, 0, !dbg !1448
  br i1 %49, label %53, label %50, !dbg !1448

; <label>:50:                                     ; preds = %47
  %51 = load i32, i32* @pfs, align 4, !dbg !1449
  %52 = icmp eq i32 %51, 1, !dbg !1449
  br i1 %52, label %53, label %54, !dbg !1449

; <label>:53:                                     ; preds = %50, %47
  br label %56, !dbg !1450

; <label>:54:                                     ; preds = %50
  call void @__assert_fail(i8* getelementptr inbounds ([51 x i8], [51 x i8]* @.str.73, i32 0, i32 0), i8* getelementptr inbounds ([57 x i8], [57 x i8]* @.str.68, i32 0, i32 0), i32 293, i8* getelementptr inbounds ([19 x i8], [19 x i8]* @__PRETTY_FUNCTION__._Z11checkParamsv, i32 0, i32 0)) #15, !dbg !1451
  unreachable, !dbg !1451
                                                  ; No predecessors!
  br label %56, !dbg !1452

; <label>:56:                                     ; preds = %55, %53
  ret void, !dbg !1453
}

; Function Attrs: noreturn nounwind
declare void @__assert_fail(i8*, i8*, i32, i8*) #5

; Function Attrs: nounwind
declare noalias i8* @calloc(i64, i64) #4

; Function Attrs: inlinehint nounwind uwtable
define linkonce_odr i64 @_Z12gen64bitRandv() #6 comdat !dbg !107 {
  %1 = alloca i64, align 8
  %2 = alloca i32, align 4
  call void @llvm.dbg.declare(metadata i64* %1, metadata !1454, metadata !177), !dbg !1455
  store i64 0, i64* %1, align 8, !dbg !1455
  call void @llvm.dbg.declare(metadata i32* %2, metadata !1456, metadata !177), !dbg !1457
  store i32 0, i32* %2, align 4, !dbg !1458
  br label %3, !dbg !1460

; <label>:3:                                      ; preds = %16, %0
  %4 = load i32, i32* %2, align 4, !dbg !1461
  %5 = icmp slt i32 %4, 64, !dbg !1464
  br i1 %5, label %6, label %19, !dbg !1465

; <label>:6:                                      ; preds = %3
  %7 = call i32 @rand() #10, !dbg !1466
  %8 = srem i32 %7, 2, !dbg !1469
  %9 = icmp ne i32 %8, 0, !dbg !1466
  br i1 %9, label %10, label %13, !dbg !1470

; <label>:10:                                     ; preds = %6
  %11 = load i64, i64* %1, align 8, !dbg !1471
  %12 = or i64 %11, 1, !dbg !1473
  store i64 %12, i64* %1, align 8, !dbg !1474
  br label %13, !dbg !1475

; <label>:13:                                     ; preds = %10, %6
  %14 = load i64, i64* %1, align 8, !dbg !1476
  %15 = shl i64 %14, 1, !dbg !1477
  store i64 %15, i64* %1, align 8, !dbg !1478
  br label %16, !dbg !1479

; <label>:16:                                     ; preds = %13
  %17 = load i32, i32* %2, align 4, !dbg !1480
  %18 = add nsw i32 %17, 1, !dbg !1480
  store i32 %18, i32* %2, align 4, !dbg !1480
  br label %3, !dbg !1482

; <label>:19:                                     ; preds = %3
  %20 = load i64, i64* %1, align 8, !dbg !1483
  ret i64 %20, !dbg !1484
}

; Function Attrs: nounwind readonly
declare i32 @strcmp(i8*, i8*) #7

; Function Attrs: nounwind readonly
declare i32 @atoi(i8*) #7

; Function Attrs: nounwind readonly
declare i64 @atoll(i8*) #7

; Function Attrs: nounwind
declare i8* @strtok(i8*, i8*) #4

; Function Attrs: nounwind
declare i32 @gettimeofday(%struct.timeval*, %struct.timezone*) #4

; Function Attrs: uwtable
define i32 @_Z21injectSoftErrorIntTy8cPKcc(i8 signext, i8*, i8 signext) #0 !dbg !70 {
  %4 = alloca i32, align 4
  %5 = alloca i8, align 1
  %6 = alloca i8*, align 8
  %7 = alloca i8, align 1
  %8 = alloca i8, align 1
  %9 = alloca i32, align 4
  %10 = alloca i32, align 4
  store i8 %0, i8* %5, align 1
  call void @llvm.dbg.declare(metadata i8* %5, metadata !1485, metadata !177), !dbg !1486
  store i8* %1, i8** %6, align 8
  call void @llvm.dbg.declare(metadata i8** %6, metadata !1487, metadata !177), !dbg !1488
  store i8 %2, i8* %7, align 1
  call void @llvm.dbg.declare(metadata i8* %7, metadata !1489, metadata !177), !dbg !1490
  %11 = load i32, i32* @fidatardflag, align 4, !dbg !1491
  %12 = icmp ne i32 %11, 0, !dbg !1491
  br i1 %12, label %14, label %13, !dbg !1493

; <label>:13:                                     ; preds = %3
  call void @_Z14updateFIParamsv(), !dbg !1494
  br label %14, !dbg !1496

; <label>:14:                                     ; preds = %13, %3
  call void @llvm.dbg.declare(metadata i8* %8, metadata !1497, metadata !177), !dbg !1498
  %15 = load i8, i8* %5, align 1, !dbg !1499
  store i8 %15, i8* %8, align 1, !dbg !1498
  call void @llvm.dbg.declare(metadata i32* %9, metadata !1500, metadata !177), !dbg !1501
  store i32 -1, i32* %9, align 4, !dbg !1501
  %16 = call i32 @_Z9checkMaskPvi(i8* %7, i32 1), !dbg !1502
  %17 = icmp ne i32 %16, 0, !dbg !1502
  br i1 %17, label %21, label %18, !dbg !1504

; <label>:18:                                     ; preds = %14
  %19 = load i8, i8* %5, align 1, !dbg !1505
  %20 = sext i8 %19 to i32, !dbg !1505
  store i32 %20, i32* %4, align 4, !dbg !1507
  br label %49, !dbg !1507

; <label>:21:                                     ; preds = %14
  %22 = load i64, i64* @fsIntTy8, align 8, !dbg !1508
  %23 = add nsw i64 %22, 1, !dbg !1508
  store i64 %23, i64* @fsIntTy8, align 8, !dbg !1508
  %24 = load i32, i32* @pfs, align 4, !dbg !1509
  %25 = icmp eq i32 %24, 1, !dbg !1511
  br i1 %25, label %26, label %29, !dbg !1512

; <label>:26:                                     ; preds = %21
  %27 = load i8, i8* %5, align 1, !dbg !1513
  %28 = sext i8 %27 to i32, !dbg !1513
  store i32 %28, i32* %4, align 4, !dbg !1515
  br label %49, !dbg !1515

; <label>:29:                                     ; preds = %21
  %30 = call i32 @_Z13matchDynFSIdxv(), !dbg !1516
  %31 = icmp ne i32 %30, 0, !dbg !1516
  br i1 %31, label %35, label %32, !dbg !1518

; <label>:32:                                     ; preds = %29
  %33 = load i8, i8* %5, align 1, !dbg !1519
  %34 = sext i8 %33 to i32, !dbg !1519
  store i32 %34, i32* %4, align 4, !dbg !1521
  br label %49, !dbg !1521

; <label>:35:                                     ; preds = %29
  call void @llvm.dbg.declare(metadata i32* %10, metadata !1522, metadata !177), !dbg !1523
  store i32 1, i32* %10, align 4, !dbg !1523
  %36 = load i32, i32* %10, align 4, !dbg !1524
  %37 = load i32, i32* @fialg, align 4, !dbg !1525
  %38 = call i32 @_Z7flipBitPvj8DataType6FIAlgo(i8* %5, i32 1, i32 %36, i32 %37), !dbg !1526
  store i32 %38, i32* %9, align 4, !dbg !1527
  %39 = load i32, i32* %9, align 4, !dbg !1528
  %40 = icmp sge i32 %39, 0, !dbg !1530
  br i1 %40, label %41, label %46, !dbg !1531

; <label>:41:                                     ; preds = %35
  %42 = load i64, i64* @fiIntTy8, align 8, !dbg !1532
  %43 = add nsw i64 %42, 1, !dbg !1532
  store i64 %43, i64* @fiIntTy8, align 8, !dbg !1532
  %44 = load i8*, i8** %6, align 8, !dbg !1534
  %45 = bitcast i32* %9 to i8*, !dbg !1535
  call void @_Z11writeFIDataPKcPvS1_S1_8DataTypeS0_(i8* %44, i8* %8, i8* %5, i8* %45, i32 1, i8* getelementptr inbounds ([2 x i8], [2 x i8]* @.str.28, i32 0, i32 0)), !dbg !1536
  br label %46, !dbg !1537

; <label>:46:                                     ; preds = %41, %35
  %47 = load i8, i8* %5, align 1, !dbg !1538
  %48 = sext i8 %47 to i32, !dbg !1538
  store i32 %48, i32* %4, align 4, !dbg !1539
  br label %49, !dbg !1539

; <label>:49:                                     ; preds = %46, %32, %26, %18
  %50 = load i32, i32* %4, align 4, !dbg !1540
  ret i32 %50, !dbg !1540
}

; Function Attrs: uwtable
define signext i16 @_Z22injectSoftErrorIntTy16sPKcs(i16 signext, i8*, i16 signext) #0 !dbg !73 {
  %4 = alloca i16, align 2
  %5 = alloca i16, align 2
  %6 = alloca i8*, align 8
  %7 = alloca i16, align 2
  %8 = alloca i16, align 2
  %9 = alloca i32, align 4
  %10 = alloca i32, align 4
  store i16 %0, i16* %5, align 2
  call void @llvm.dbg.declare(metadata i16* %5, metadata !1541, metadata !177), !dbg !1542
  store i8* %1, i8** %6, align 8
  call void @llvm.dbg.declare(metadata i8** %6, metadata !1543, metadata !177), !dbg !1544
  store i16 %2, i16* %7, align 2
  call void @llvm.dbg.declare(metadata i16* %7, metadata !1545, metadata !177), !dbg !1546
  %11 = load i32, i32* @fidatardflag, align 4, !dbg !1547
  %12 = icmp ne i32 %11, 0, !dbg !1547
  br i1 %12, label %14, label %13, !dbg !1549

; <label>:13:                                     ; preds = %3
  call void @_Z14updateFIParamsv(), !dbg !1550
  br label %14, !dbg !1552

; <label>:14:                                     ; preds = %13, %3
  call void @llvm.dbg.declare(metadata i16* %8, metadata !1553, metadata !177), !dbg !1554
  %15 = load i16, i16* %5, align 2, !dbg !1555
  store i16 %15, i16* %8, align 2, !dbg !1554
  call void @llvm.dbg.declare(metadata i32* %9, metadata !1556, metadata !177), !dbg !1557
  store i32 -1, i32* %9, align 4, !dbg !1557
  %16 = bitcast i16* %7 to i8*, !dbg !1558
  %17 = call i32 @_Z9checkMaskPvi(i8* %16, i32 2), !dbg !1560
  %18 = icmp ne i32 %17, 0, !dbg !1560
  br i1 %18, label %21, label %19, !dbg !1561

; <label>:19:                                     ; preds = %14
  %20 = load i16, i16* %5, align 2, !dbg !1562
  store i16 %20, i16* %4, align 2, !dbg !1564
  br label %49, !dbg !1564

; <label>:21:                                     ; preds = %14
  %22 = load i64, i64* @fsIntTy16, align 8, !dbg !1565
  %23 = add nsw i64 %22, 1, !dbg !1565
  store i64 %23, i64* @fsIntTy16, align 8, !dbg !1565
  %24 = load i32, i32* @pfs, align 4, !dbg !1566
  %25 = icmp eq i32 %24, 1, !dbg !1568
  br i1 %25, label %26, label %28, !dbg !1569

; <label>:26:                                     ; preds = %21
  %27 = load i16, i16* %5, align 2, !dbg !1570
  store i16 %27, i16* %4, align 2, !dbg !1572
  br label %49, !dbg !1572

; <label>:28:                                     ; preds = %21
  %29 = call i32 @_Z13matchDynFSIdxv(), !dbg !1573
  %30 = icmp ne i32 %29, 0, !dbg !1573
  br i1 %30, label %33, label %31, !dbg !1575

; <label>:31:                                     ; preds = %28
  %32 = load i16, i16* %5, align 2, !dbg !1576
  store i16 %32, i16* %4, align 2, !dbg !1578
  br label %49, !dbg !1578

; <label>:33:                                     ; preds = %28
  call void @llvm.dbg.declare(metadata i32* %10, metadata !1579, metadata !177), !dbg !1580
  store i32 2, i32* %10, align 4, !dbg !1580
  %34 = bitcast i16* %5 to i8*, !dbg !1581
  %35 = load i32, i32* %10, align 4, !dbg !1582
  %36 = load i32, i32* @fialg, align 4, !dbg !1583
  %37 = call i32 @_Z7flipBitPvj8DataType6FIAlgo(i8* %34, i32 2, i32 %35, i32 %36), !dbg !1584
  store i32 %37, i32* %9, align 4, !dbg !1585
  %38 = load i32, i32* %9, align 4, !dbg !1586
  %39 = icmp sge i32 %38, 0, !dbg !1588
  br i1 %39, label %40, label %47, !dbg !1589

; <label>:40:                                     ; preds = %33
  %41 = load i64, i64* @fiIntTy16, align 8, !dbg !1590
  %42 = add nsw i64 %41, 1, !dbg !1590
  store i64 %42, i64* @fiIntTy16, align 8, !dbg !1590
  %43 = load i8*, i8** %6, align 8, !dbg !1592
  %44 = bitcast i16* %8 to i8*, !dbg !1593
  %45 = bitcast i16* %5 to i8*, !dbg !1594
  %46 = bitcast i32* %9 to i8*, !dbg !1595
  call void @_Z11writeFIDataPKcPvS1_S1_8DataTypeS0_(i8* %43, i8* %44, i8* %45, i8* %46, i32 2, i8* getelementptr inbounds ([2 x i8], [2 x i8]* @.str.28, i32 0, i32 0)), !dbg !1596
  br label %47, !dbg !1597

; <label>:47:                                     ; preds = %40, %33
  %48 = load i16, i16* %5, align 2, !dbg !1598
  store i16 %48, i16* %4, align 2, !dbg !1599
  br label %49, !dbg !1599

; <label>:49:                                     ; preds = %47, %31, %26, %19
  %50 = load i16, i16* %4, align 2, !dbg !1600
  ret i16 %50, !dbg !1600
}

; Function Attrs: uwtable
define i32 @_Z22injectSoftErrorIntTy32iPKci(i32, i8*, i32) #0 !dbg !77 {
  %4 = alloca i32, align 4
  %5 = alloca i32, align 4
  %6 = alloca i8*, align 8
  %7 = alloca i32, align 4
  %8 = alloca i32, align 4
  %9 = alloca i32, align 4
  %10 = alloca i32, align 4
  store i32 %0, i32* %5, align 4
  call void @llvm.dbg.declare(metadata i32* %5, metadata !1601, metadata !177), !dbg !1602
  store i8* %1, i8** %6, align 8
  call void @llvm.dbg.declare(metadata i8** %6, metadata !1603, metadata !177), !dbg !1604
  store i32 %2, i32* %7, align 4
  call void @llvm.dbg.declare(metadata i32* %7, metadata !1605, metadata !177), !dbg !1606
  %11 = load i32, i32* @fidatardflag, align 4, !dbg !1607
  %12 = icmp ne i32 %11, 0, !dbg !1607
  br i1 %12, label %14, label %13, !dbg !1609

; <label>:13:                                     ; preds = %3
  call void @_Z14updateFIParamsv(), !dbg !1610
  br label %14, !dbg !1612

; <label>:14:                                     ; preds = %13, %3
  call void @llvm.dbg.declare(metadata i32* %8, metadata !1613, metadata !177), !dbg !1614
  %15 = load i32, i32* %5, align 4, !dbg !1615
  store i32 %15, i32* %8, align 4, !dbg !1614
  call void @llvm.dbg.declare(metadata i32* %9, metadata !1616, metadata !177), !dbg !1617
  store i32 -1, i32* %9, align 4, !dbg !1617
  %16 = bitcast i32* %7 to i8*, !dbg !1618
  %17 = call i32 @_Z9checkMaskPvi(i8* %16, i32 4), !dbg !1620
  %18 = icmp ne i32 %17, 0, !dbg !1620
  br i1 %18, label %21, label %19, !dbg !1621

; <label>:19:                                     ; preds = %14
  %20 = load i32, i32* %5, align 4, !dbg !1622
  store i32 %20, i32* %4, align 4, !dbg !1624
  br label %49, !dbg !1624

; <label>:21:                                     ; preds = %14
  %22 = load i64, i64* @fsIntTy32, align 8, !dbg !1625
  %23 = add nsw i64 %22, 1, !dbg !1625
  store i64 %23, i64* @fsIntTy32, align 8, !dbg !1625
  %24 = load i32, i32* @pfs, align 4, !dbg !1626
  %25 = icmp eq i32 %24, 1, !dbg !1628
  br i1 %25, label %26, label %28, !dbg !1629

; <label>:26:                                     ; preds = %21
  %27 = load i32, i32* %5, align 4, !dbg !1630
  store i32 %27, i32* %4, align 4, !dbg !1632
  br label %49, !dbg !1632

; <label>:28:                                     ; preds = %21
  %29 = call i32 @_Z13matchDynFSIdxv(), !dbg !1633
  %30 = icmp ne i32 %29, 0, !dbg !1633
  br i1 %30, label %33, label %31, !dbg !1635

; <label>:31:                                     ; preds = %28
  %32 = load i32, i32* %5, align 4, !dbg !1636
  store i32 %32, i32* %4, align 4, !dbg !1638
  br label %49, !dbg !1638

; <label>:33:                                     ; preds = %28
  call void @llvm.dbg.declare(metadata i32* %10, metadata !1639, metadata !177), !dbg !1640
  store i32 3, i32* %10, align 4, !dbg !1640
  %34 = bitcast i32* %5 to i8*, !dbg !1641
  %35 = load i32, i32* %10, align 4, !dbg !1642
  %36 = load i32, i32* @fialg, align 4, !dbg !1643
  %37 = call i32 @_Z7flipBitPvj8DataType6FIAlgo(i8* %34, i32 4, i32 %35, i32 %36), !dbg !1644
  store i32 %37, i32* %9, align 4, !dbg !1645
  %38 = load i32, i32* %9, align 4, !dbg !1646
  %39 = icmp sge i32 %38, 0, !dbg !1648
  br i1 %39, label %40, label %47, !dbg !1649

; <label>:40:                                     ; preds = %33
  %41 = load i64, i64* @fiIntTy32, align 8, !dbg !1650
  %42 = add nsw i64 %41, 1, !dbg !1650
  store i64 %42, i64* @fiIntTy32, align 8, !dbg !1650
  %43 = load i8*, i8** %6, align 8, !dbg !1652
  %44 = bitcast i32* %8 to i8*, !dbg !1653
  %45 = bitcast i32* %5 to i8*, !dbg !1654
  %46 = bitcast i32* %9 to i8*, !dbg !1655
  call void @_Z11writeFIDataPKcPvS1_S1_8DataTypeS0_(i8* %43, i8* %44, i8* %45, i8* %46, i32 3, i8* getelementptr inbounds ([2 x i8], [2 x i8]* @.str.28, i32 0, i32 0)), !dbg !1656
  br label %47, !dbg !1657

; <label>:47:                                     ; preds = %40, %33
  %48 = load i32, i32* %5, align 4, !dbg !1658
  store i32 %48, i32* %4, align 4, !dbg !1659
  br label %49, !dbg !1659

; <label>:49:                                     ; preds = %47, %31, %26, %19
  %50 = load i32, i32* %4, align 4, !dbg !1660
  ret i32 %50, !dbg !1660
}

; Function Attrs: uwtable
define i64 @_Z22injectSoftErrorIntTy64xPKcx(i64, i8*, i64) #0 !dbg !78 {
  %4 = alloca i64, align 8
  %5 = alloca i64, align 8
  %6 = alloca i8*, align 8
  %7 = alloca i64, align 8
  %8 = alloca i64, align 8
  %9 = alloca i32, align 4
  %10 = alloca i32, align 4
  store i64 %0, i64* %5, align 8
  call void @llvm.dbg.declare(metadata i64* %5, metadata !1661, metadata !177), !dbg !1662
  store i8* %1, i8** %6, align 8
  call void @llvm.dbg.declare(metadata i8** %6, metadata !1663, metadata !177), !dbg !1664
  store i64 %2, i64* %7, align 8
  call void @llvm.dbg.declare(metadata i64* %7, metadata !1665, metadata !177), !dbg !1666
  %11 = load i32, i32* @fidatardflag, align 4, !dbg !1667
  %12 = icmp ne i32 %11, 0, !dbg !1667
  br i1 %12, label %14, label %13, !dbg !1669

; <label>:13:                                     ; preds = %3
  call void @_Z14updateFIParamsv(), !dbg !1670
  br label %14, !dbg !1672

; <label>:14:                                     ; preds = %13, %3
  call void @llvm.dbg.declare(metadata i64* %8, metadata !1673, metadata !177), !dbg !1674
  %15 = load i64, i64* %5, align 8, !dbg !1675
  store i64 %15, i64* %8, align 8, !dbg !1674
  call void @llvm.dbg.declare(metadata i32* %9, metadata !1676, metadata !177), !dbg !1677
  store i32 -1, i32* %9, align 4, !dbg !1677
  %16 = bitcast i64* %7 to i8*, !dbg !1678
  %17 = call i32 @_Z9checkMaskPvi(i8* %16, i32 8), !dbg !1680
  %18 = icmp ne i32 %17, 0, !dbg !1680
  br i1 %18, label %21, label %19, !dbg !1681

; <label>:19:                                     ; preds = %14
  %20 = load i64, i64* %5, align 8, !dbg !1682
  store i64 %20, i64* %4, align 8, !dbg !1684
  br label %49, !dbg !1684

; <label>:21:                                     ; preds = %14
  %22 = load i64, i64* @fsIntTy64, align 8, !dbg !1685
  %23 = add nsw i64 %22, 1, !dbg !1685
  store i64 %23, i64* @fsIntTy64, align 8, !dbg !1685
  %24 = load i32, i32* @pfs, align 4, !dbg !1686
  %25 = icmp eq i32 %24, 1, !dbg !1688
  br i1 %25, label %26, label %28, !dbg !1689

; <label>:26:                                     ; preds = %21
  %27 = load i64, i64* %5, align 8, !dbg !1690
  store i64 %27, i64* %4, align 8, !dbg !1692
  br label %49, !dbg !1692

; <label>:28:                                     ; preds = %21
  %29 = call i32 @_Z13matchDynFSIdxv(), !dbg !1693
  %30 = icmp ne i32 %29, 0, !dbg !1693
  br i1 %30, label %33, label %31, !dbg !1695

; <label>:31:                                     ; preds = %28
  %32 = load i64, i64* %5, align 8, !dbg !1696
  store i64 %32, i64* %4, align 8, !dbg !1698
  br label %49, !dbg !1698

; <label>:33:                                     ; preds = %28
  call void @llvm.dbg.declare(metadata i32* %10, metadata !1699, metadata !177), !dbg !1700
  store i32 4, i32* %10, align 4, !dbg !1700
  %34 = bitcast i64* %5 to i8*, !dbg !1701
  %35 = load i32, i32* %10, align 4, !dbg !1702
  %36 = load i32, i32* @fialg, align 4, !dbg !1703
  %37 = call i32 @_Z7flipBitPvj8DataType6FIAlgo(i8* %34, i32 8, i32 %35, i32 %36), !dbg !1704
  store i32 %37, i32* %9, align 4, !dbg !1705
  %38 = load i32, i32* %9, align 4, !dbg !1706
  %39 = icmp sge i32 %38, 0, !dbg !1708
  br i1 %39, label %40, label %47, !dbg !1709

; <label>:40:                                     ; preds = %33
  %41 = load i64, i64* @fiIntTy64, align 8, !dbg !1710
  %42 = add nsw i64 %41, 1, !dbg !1710
  store i64 %42, i64* @fiIntTy64, align 8, !dbg !1710
  %43 = load i8*, i8** %6, align 8, !dbg !1712
  %44 = bitcast i64* %8 to i8*, !dbg !1713
  %45 = bitcast i64* %5 to i8*, !dbg !1714
  %46 = bitcast i32* %9 to i8*, !dbg !1715
  call void @_Z11writeFIDataPKcPvS1_S1_8DataTypeS0_(i8* %43, i8* %44, i8* %45, i8* %46, i32 4, i8* getelementptr inbounds ([2 x i8], [2 x i8]* @.str.28, i32 0, i32 0)), !dbg !1716
  br label %47, !dbg !1717

; <label>:47:                                     ; preds = %40, %33
  %48 = load i64, i64* %5, align 8, !dbg !1718
  store i64 %48, i64* %4, align 8, !dbg !1719
  br label %49, !dbg !1719

; <label>:49:                                     ; preds = %47, %31, %26, %19
  %50 = load i64, i64* %4, align 8, !dbg !1720
  ret i64 %50, !dbg !1720
}

; Function Attrs: uwtable
define float @_Z22injectSoftErrorFloatTyfPKcf(float, i8*, float) #0 !dbg !81 {
  %4 = alloca float, align 4
  %5 = alloca float, align 4
  %6 = alloca i8*, align 8
  %7 = alloca float, align 4
  %8 = alloca float, align 4
  %9 = alloca i32, align 4
  %10 = alloca i32, align 4
  store float %0, float* %5, align 4
  call void @llvm.dbg.declare(metadata float* %5, metadata !1721, metadata !177), !dbg !1722
  store i8* %1, i8** %6, align 8
  call void @llvm.dbg.declare(metadata i8** %6, metadata !1723, metadata !177), !dbg !1724
  store float %2, float* %7, align 4
  call void @llvm.dbg.declare(metadata float* %7, metadata !1725, metadata !177), !dbg !1726
  %11 = load i32, i32* @fidatardflag, align 4, !dbg !1727
  %12 = icmp ne i32 %11, 0, !dbg !1727
  br i1 %12, label %14, label %13, !dbg !1729

; <label>:13:                                     ; preds = %3
  call void @_Z14updateFIParamsv(), !dbg !1730
  br label %14, !dbg !1732

; <label>:14:                                     ; preds = %13, %3
  call void @llvm.dbg.declare(metadata float* %8, metadata !1733, metadata !177), !dbg !1734
  %15 = load float, float* %5, align 4, !dbg !1735
  store float %15, float* %8, align 4, !dbg !1734
  call void @llvm.dbg.declare(metadata i32* %9, metadata !1736, metadata !177), !dbg !1737
  store i32 -1, i32* %9, align 4, !dbg !1737
  %16 = bitcast float* %7 to i8*, !dbg !1738
  %17 = call i32 @_Z9checkMaskPvi(i8* %16, i32 4), !dbg !1740
  %18 = icmp ne i32 %17, 0, !dbg !1740
  br i1 %18, label %21, label %19, !dbg !1741

; <label>:19:                                     ; preds = %14
  %20 = load float, float* %5, align 4, !dbg !1742
  store float %20, float* %4, align 4, !dbg !1744
  br label %49, !dbg !1744

; <label>:21:                                     ; preds = %14
  %22 = load i64, i64* @fsFloatTy, align 8, !dbg !1745
  %23 = add nsw i64 %22, 1, !dbg !1745
  store i64 %23, i64* @fsFloatTy, align 8, !dbg !1745
  %24 = load i32, i32* @pfs, align 4, !dbg !1746
  %25 = icmp eq i32 %24, 1, !dbg !1748
  br i1 %25, label %26, label %28, !dbg !1749

; <label>:26:                                     ; preds = %21
  %27 = load float, float* %5, align 4, !dbg !1750
  store float %27, float* %4, align 4, !dbg !1752
  br label %49, !dbg !1752

; <label>:28:                                     ; preds = %21
  %29 = call i32 @_Z13matchDynFSIdxv(), !dbg !1753
  %30 = icmp ne i32 %29, 0, !dbg !1753
  br i1 %30, label %33, label %31, !dbg !1755

; <label>:31:                                     ; preds = %28
  %32 = load float, float* %5, align 4, !dbg !1756
  store float %32, float* %4, align 4, !dbg !1758
  br label %49, !dbg !1758

; <label>:33:                                     ; preds = %28
  call void @llvm.dbg.declare(metadata i32* %10, metadata !1759, metadata !177), !dbg !1760
  store i32 5, i32* %10, align 4, !dbg !1760
  %34 = bitcast float* %5 to i8*, !dbg !1761
  %35 = load i32, i32* %10, align 4, !dbg !1762
  %36 = load i32, i32* @fialg, align 4, !dbg !1763
  %37 = call i32 @_Z7flipBitPvj8DataType6FIAlgo(i8* %34, i32 4, i32 %35, i32 %36), !dbg !1764
  store i32 %37, i32* %9, align 4, !dbg !1765
  %38 = load i32, i32* %9, align 4, !dbg !1766
  %39 = icmp sge i32 %38, 0, !dbg !1768
  br i1 %39, label %40, label %47, !dbg !1769

; <label>:40:                                     ; preds = %33
  %41 = load i64, i64* @fiFloatTy, align 8, !dbg !1770
  %42 = add nsw i64 %41, 1, !dbg !1770
  store i64 %42, i64* @fiFloatTy, align 8, !dbg !1770
  %43 = load i8*, i8** %6, align 8, !dbg !1772
  %44 = bitcast float* %8 to i8*, !dbg !1773
  %45 = bitcast float* %5 to i8*, !dbg !1774
  %46 = bitcast i32* %9 to i8*, !dbg !1775
  call void @_Z11writeFIDataPKcPvS1_S1_8DataTypeS0_(i8* %43, i8* %44, i8* %45, i8* %46, i32 5, i8* getelementptr inbounds ([2 x i8], [2 x i8]* @.str.28, i32 0, i32 0)), !dbg !1776
  br label %47, !dbg !1777

; <label>:47:                                     ; preds = %40, %33
  %48 = load float, float* %5, align 4, !dbg !1778
  store float %48, float* %4, align 4, !dbg !1779
  br label %49, !dbg !1779

; <label>:49:                                     ; preds = %47, %31, %26, %19
  %50 = load float, float* %4, align 4, !dbg !1780
  ret float %50, !dbg !1780
}

; Function Attrs: uwtable
define double @_Z23injectSoftErrorDoubleTydPKcd(double, i8*, double) #0 !dbg !84 {
  %4 = alloca double, align 8
  %5 = alloca double, align 8
  %6 = alloca i8*, align 8
  %7 = alloca double, align 8
  %8 = alloca double, align 8
  %9 = alloca i32, align 4
  %10 = alloca i32, align 4
  store double %0, double* %5, align 8
  call void @llvm.dbg.declare(metadata double* %5, metadata !1781, metadata !177), !dbg !1782
  store i8* %1, i8** %6, align 8
  call void @llvm.dbg.declare(metadata i8** %6, metadata !1783, metadata !177), !dbg !1784
  store double %2, double* %7, align 8
  call void @llvm.dbg.declare(metadata double* %7, metadata !1785, metadata !177), !dbg !1786
  %11 = load i32, i32* @fidatardflag, align 4, !dbg !1787
  %12 = icmp ne i32 %11, 0, !dbg !1787
  br i1 %12, label %14, label %13, !dbg !1789

; <label>:13:                                     ; preds = %3
  call void @_Z14updateFIParamsv(), !dbg !1790
  br label %14, !dbg !1792

; <label>:14:                                     ; preds = %13, %3
  call void @llvm.dbg.declare(metadata double* %8, metadata !1793, metadata !177), !dbg !1794
  %15 = load double, double* %5, align 8, !dbg !1795
  store double %15, double* %8, align 8, !dbg !1794
  call void @llvm.dbg.declare(metadata i32* %9, metadata !1796, metadata !177), !dbg !1797
  store i32 -1, i32* %9, align 4, !dbg !1797
  %16 = bitcast double* %7 to i8*, !dbg !1798
  %17 = call i32 @_Z9checkMaskPvi(i8* %16, i32 8), !dbg !1800
  %18 = icmp ne i32 %17, 0, !dbg !1800
  br i1 %18, label %21, label %19, !dbg !1801

; <label>:19:                                     ; preds = %14
  %20 = load double, double* %5, align 8, !dbg !1802
  store double %20, double* %4, align 8, !dbg !1804
  br label %49, !dbg !1804

; <label>:21:                                     ; preds = %14
  %22 = load i64, i64* @fsDoubleTy, align 8, !dbg !1805
  %23 = add nsw i64 %22, 1, !dbg !1805
  store i64 %23, i64* @fsDoubleTy, align 8, !dbg !1805
  %24 = load i32, i32* @pfs, align 4, !dbg !1806
  %25 = icmp eq i32 %24, 1, !dbg !1808
  br i1 %25, label %26, label %28, !dbg !1809

; <label>:26:                                     ; preds = %21
  %27 = load double, double* %5, align 8, !dbg !1810
  store double %27, double* %4, align 8, !dbg !1812
  br label %49, !dbg !1812

; <label>:28:                                     ; preds = %21
  %29 = call i32 @_Z13matchDynFSIdxv(), !dbg !1813
  %30 = icmp ne i32 %29, 0, !dbg !1813
  br i1 %30, label %33, label %31, !dbg !1815

; <label>:31:                                     ; preds = %28
  %32 = load double, double* %5, align 8, !dbg !1816
  store double %32, double* %4, align 8, !dbg !1818
  br label %49, !dbg !1818

; <label>:33:                                     ; preds = %28
  call void @llvm.dbg.declare(metadata i32* %10, metadata !1819, metadata !177), !dbg !1820
  store i32 6, i32* %10, align 4, !dbg !1820
  %34 = bitcast double* %5 to i8*, !dbg !1821
  %35 = load i32, i32* %10, align 4, !dbg !1822
  %36 = load i32, i32* @fialg, align 4, !dbg !1823
  %37 = call i32 @_Z7flipBitPvj8DataType6FIAlgo(i8* %34, i32 8, i32 %35, i32 %36), !dbg !1824
  store i32 %37, i32* %9, align 4, !dbg !1825
  %38 = load i32, i32* %9, align 4, !dbg !1826
  %39 = icmp sge i32 %38, 0, !dbg !1828
  br i1 %39, label %40, label %47, !dbg !1829

; <label>:40:                                     ; preds = %33
  %41 = load i64, i64* @fiDoubleTy, align 8, !dbg !1830
  %42 = add nsw i64 %41, 1, !dbg !1830
  store i64 %42, i64* @fiDoubleTy, align 8, !dbg !1830
  %43 = load i8*, i8** %6, align 8, !dbg !1832
  %44 = bitcast double* %8 to i8*, !dbg !1833
  %45 = bitcast double* %5 to i8*, !dbg !1834
  %46 = bitcast i32* %9 to i8*, !dbg !1835
  call void @_Z11writeFIDataPKcPvS1_S1_8DataTypeS0_(i8* %43, i8* %44, i8* %45, i8* %46, i32 6, i8* getelementptr inbounds ([2 x i8], [2 x i8]* @.str.28, i32 0, i32 0)), !dbg !1836
  br label %47, !dbg !1837

; <label>:47:                                     ; preds = %40, %33
  %48 = load double, double* %5, align 8, !dbg !1838
  store double %48, double* %4, align 8, !dbg !1839
  br label %49, !dbg !1839

; <label>:49:                                     ; preds = %47, %31, %26, %19
  %50 = load double, double* %4, align 8, !dbg !1840
  ret double %50, !dbg !1840
}

; Function Attrs: uwtable
define void @_Z14profilePresagexPixS_PKc(i64, i32*, i64, i32*, i8*) #0 !dbg !87 {
  %6 = alloca i64, align 8
  %7 = alloca i32*, align 8
  %8 = alloca i64, align 8
  %9 = alloca i32*, align 8
  %10 = alloca i8*, align 8
  %11 = alloca %struct._IO_FILE*, align 8
  %12 = alloca i64, align 8
  %13 = alloca i64, align 8
  %14 = alloca double, align 8
  store i64 %0, i64* %6, align 8
  call void @llvm.dbg.declare(metadata i64* %6, metadata !1841, metadata !177), !dbg !1842
  store i32* %1, i32** %7, align 8
  call void @llvm.dbg.declare(metadata i32** %7, metadata !1843, metadata !177), !dbg !1844
  store i64 %2, i64* %8, align 8
  call void @llvm.dbg.declare(metadata i64* %8, metadata !1845, metadata !177), !dbg !1846
  store i32* %3, i32** %9, align 8
  call void @llvm.dbg.declare(metadata i32** %9, metadata !1847, metadata !177), !dbg !1848
  store i8* %4, i8** %10, align 8
  call void @llvm.dbg.declare(metadata i8** %10, metadata !1849, metadata !177), !dbg !1850
  call void @llvm.dbg.declare(metadata %struct._IO_FILE** %11, metadata !1851, metadata !177), !dbg !1852
  %15 = load i8*, i8** %10, align 8, !dbg !1853
  %16 = call %struct._IO_FILE* @fopen(i8* %15, i8* getelementptr inbounds ([2 x i8], [2 x i8]* @.str.28, i32 0, i32 0)), !dbg !1854
  store %struct._IO_FILE* %16, %struct._IO_FILE** %11, align 8, !dbg !1855
  call void @llvm.dbg.declare(metadata i64* %12, metadata !1856, metadata !177), !dbg !1857
  %17 = load i64, i64* %8, align 8, !dbg !1858
  %18 = load i64, i64* %6, align 8, !dbg !1859
  %19 = sub nsw i64 %17, %18, !dbg !1860
  store i64 %19, i64* %12, align 8, !dbg !1857
  call void @llvm.dbg.declare(metadata i64* %13, metadata !1861, metadata !177), !dbg !1862
  %20 = load i32*, i32** %9, align 8, !dbg !1863
  %21 = ptrtoint i32* %20 to i64, !dbg !1864
  %22 = load i32*, i32** %7, align 8, !dbg !1865
  %23 = ptrtoint i32* %22 to i64, !dbg !1866
  %24 = sub nsw i64 %21, %23, !dbg !1867
  store i64 %24, i64* %13, align 8, !dbg !1862
  call void @llvm.dbg.declare(metadata double* %14, metadata !1868, metadata !177), !dbg !1869
  store double 0.000000e+00, double* %14, align 8, !dbg !1869
  %25 = load i64, i64* %13, align 8, !dbg !1870
  %26 = icmp ne i64 %25, 0, !dbg !1872
  br i1 %26, label %27, label %33, !dbg !1873

; <label>:27:                                     ; preds = %5
  %28 = load i64, i64* %12, align 8, !dbg !1874
  %29 = sitofp i64 %28 to double, !dbg !1874
  %30 = load i64, i64* %13, align 8, !dbg !1875
  %31 = sitofp i64 %30 to double, !dbg !1875
  %32 = fdiv double %29, %31, !dbg !1876
  store double %32, double* %14, align 8, !dbg !1877
  br label %33, !dbg !1878

; <label>:33:                                     ; preds = %27, %5
  %34 = load %struct._IO_FILE*, %struct._IO_FILE** %11, align 8, !dbg !1879
  %35 = load i64, i64* %12, align 8, !dbg !1880
  %36 = load i64, i64* %13, align 8, !dbg !1881
  %37 = load double, double* %14, align 8, !dbg !1882
  %38 = call i32 (%struct._IO_FILE*, i8*, ...) @fprintf(%struct._IO_FILE* %34, i8* getelementptr inbounds ([15 x i8], [15 x i8]* @.str.29, i32 0, i32 0), i64 %35, i64 %36, double %37), !dbg !1883
  %39 = load %struct._IO_FILE*, %struct._IO_FILE** %11, align 8, !dbg !1884
  %40 = call i32 @fclose(%struct._IO_FILE* %39), !dbg !1885
  ret void, !dbg !1886
}

; Function Attrs: uwtable
define internal void @_GLOBAL__sub_I_mm.cpp() #0 section ".text.startup" {
  call void @__cxx_global_var_init()
  ret void
}

; Function Attrs: uwtable
define internal void @__cxx_global_var_init() #0 section ".text.startup" {
  call void @_ZNSt8ios_base4InitC1Ev(%"class.std::ios_base::Init"* @_ZStL8__ioinit)
  %1 = call i32 @__cxa_atexit(void (i8*)* bitcast (void (%"class.std::ios_base::Init"*)* @_ZNSt8ios_base4InitD1Ev to void (i8*)*), i8* getelementptr inbounds (%"class.std::ios_base::Init", %"class.std::ios_base::Init"* @_ZStL8__ioinit, i32 0, i32 0), i8* @__dso_handle) #10
  ret void
}

declare void @_ZNSt8ios_base4InitC1Ev(%"class.std::ios_base::Init"*) unnamed_addr #3

; Function Attrs: nounwind
declare void @_ZNSt8ios_base4InitD1Ev(%"class.std::ios_base::Init"*) unnamed_addr #4

; Function Attrs: nounwind
declare i32 @__cxa_atexit(void (i8*)*, i8*, i8*) #10

; Function Attrs: uwtable
define void @_Z10printArrayNSt7__cxx1112basic_stringIcSt11char_traitsIcESaIcEEEPiii(%"class.std::__cxx11::basic_string"*, i32*, i32, i32) #0 {
  %5 = alloca i32*, align 8
  %6 = alloca i32, align 4
  %7 = alloca i32, align 4
  %8 = alloca i32, align 4
  %9 = alloca i32, align 4
  store i32* %1, i32** %5, align 8
  store i32 %2, i32* %6, align 4
  store i32 %3, i32* %7, align 4
  %10 = call dereferenceable(272) %"class.std::basic_ostream"* @_ZStlsISt11char_traitsIcEERSt13basic_ostreamIcT_ES5_PKc(%"class.std::basic_ostream"* dereferenceable(272) @_ZSt4cout, i8* getelementptr inbounds ([2 x i8], [2 x i8]* @.str.87, i32 0, i32 0))
  %11 = call dereferenceable(272) %"class.std::basic_ostream"* @_ZStlsIcSt11char_traitsIcESaIcEERSt13basic_ostreamIT_T0_ES7_RKNSt7__cxx1112basic_stringIS4_S5_T1_EE(%"class.std::basic_ostream"* dereferenceable(272) %10, %"class.std::__cxx11::basic_string"* dereferenceable(32) %0)
  %12 = call dereferenceable(272) %"class.std::basic_ostream"* @_ZNSolsEPFRSoS_E(%"class.std::basic_ostream"* %11, %"class.std::basic_ostream"* (%"class.std::basic_ostream"*)* @_ZSt4endlIcSt11char_traitsIcEERSt13basic_ostreamIT_T0_ES6_)
  store i32 0, i32* %8, align 4
  br label %13

; <label>:13:                                     ; preds = %41, %4
  %14 = load i32, i32* %8, align 4
  %15 = load i32, i32* %6, align 4
  %16 = icmp slt i32 %14, %15
  br i1 %16, label %17, label %44

; <label>:17:                                     ; preds = %13
  %18 = call dereferenceable(272) %"class.std::basic_ostream"* @_ZStlsISt11char_traitsIcEERSt13basic_ostreamIcT_ES5_PKc(%"class.std::basic_ostream"* dereferenceable(272) @_ZSt4cout, i8* getelementptr inbounds ([3 x i8], [3 x i8]* @.str.1.88, i32 0, i32 0))
  store i32 0, i32* %9, align 4
  br label %19

; <label>:19:                                     ; preds = %35, %17
  %20 = load i32, i32* %9, align 4
  %21 = load i32, i32* %7, align 4
  %22 = icmp slt i32 %20, %21
  br i1 %22, label %23, label %38

; <label>:23:                                     ; preds = %19
  %24 = load i32, i32* %6, align 4
  %25 = load i32, i32* %8, align 4
  %26 = mul nsw i32 %24, %25
  %27 = load i32, i32* %9, align 4
  %28 = add nsw i32 %26, %27
  %29 = sext i32 %28 to i64
  %30 = load i32*, i32** %5, align 8
  %31 = getelementptr inbounds i32, i32* %30, i64 %29
  %32 = load i32, i32* %31, align 4
  %33 = call dereferenceable(272) %"class.std::basic_ostream"* @_ZNSolsEi(%"class.std::basic_ostream"* @_ZSt4cout, i32 %32)
  %34 = call dereferenceable(272) %"class.std::basic_ostream"* @_ZStlsISt11char_traitsIcEERSt13basic_ostreamIcT_ES5_PKc(%"class.std::basic_ostream"* dereferenceable(272) %33, i8* getelementptr inbounds ([2 x i8], [2 x i8]* @.str.2.89, i32 0, i32 0))
  br label %35

; <label>:35:                                     ; preds = %23
  %36 = load i32, i32* %9, align 4
  %37 = add nsw i32 %36, 1
  store i32 %37, i32* %9, align 4
  br label %19

; <label>:38:                                     ; preds = %19
  %39 = call dereferenceable(272) %"class.std::basic_ostream"* @_ZStlsISt11char_traitsIcEERSt13basic_ostreamIcT_ES5_PKc(%"class.std::basic_ostream"* dereferenceable(272) @_ZSt4cout, i8* getelementptr inbounds ([2 x i8], [2 x i8]* @.str.3.90, i32 0, i32 0))
  %40 = call dereferenceable(272) %"class.std::basic_ostream"* @_ZNSolsEPFRSoS_E(%"class.std::basic_ostream"* %39, %"class.std::basic_ostream"* (%"class.std::basic_ostream"*)* @_ZSt4endlIcSt11char_traitsIcEERSt13basic_ostreamIT_T0_ES6_)
  br label %41

; <label>:41:                                     ; preds = %38
  %42 = load i32, i32* %8, align 4
  %43 = add nsw i32 %42, 1
  store i32 %43, i32* %8, align 4
  br label %13

; <label>:44:                                     ; preds = %13
  %45 = call dereferenceable(272) %"class.std::basic_ostream"* @_ZNSolsEPFRSoS_E(%"class.std::basic_ostream"* @_ZSt4cout, %"class.std::basic_ostream"* (%"class.std::basic_ostream"*)* @_ZSt4endlIcSt11char_traitsIcEERSt13basic_ostreamIT_T0_ES6_)
  ret void
}

declare dereferenceable(272) %"class.std::basic_ostream"* @_ZStlsISt11char_traitsIcEERSt13basic_ostreamIcT_ES5_PKc(%"class.std::basic_ostream"* dereferenceable(272), i8*) #3

declare dereferenceable(272) %"class.std::basic_ostream"* @_ZStlsIcSt11char_traitsIcESaIcEERSt13basic_ostreamIT_T0_ES7_RKNSt7__cxx1112basic_stringIS4_S5_T1_EE(%"class.std::basic_ostream"* dereferenceable(272), %"class.std::__cxx11::basic_string"* dereferenceable(32)) #3

declare dereferenceable(272) %"class.std::basic_ostream"* @_ZSt4endlIcSt11char_traitsIcEERSt13basic_ostreamIT_T0_ES6_(%"class.std::basic_ostream"* dereferenceable(272)) #3

declare dereferenceable(272) %"class.std::basic_ostream"* @_ZNSolsEPFRSoS_E(%"class.std::basic_ostream"*, %"class.std::basic_ostream"* (%"class.std::basic_ostream"*)*) #3

declare dereferenceable(272) %"class.std::basic_ostream"* @_ZNSolsEi(%"class.std::basic_ostream"*, i32) #3

; Function Attrs: nounwind uwtable
define void @_Z11init2DArrayPiii(i32*, i32, i32) #11 {
  %4 = alloca i32*, align 8
  %5 = alloca i32, align 4
  %6 = alloca i32, align 4
  %7 = alloca i32, align 4
  %8 = alloca i32, align 4
  store i32* %0, i32** %4, align 8
  store i32 %1, i32* %5, align 4
  store i32 %2, i32* %6, align 4
  store i32 0, i32* %7, align 4
  br label %9

; <label>:9:                                      ; preds = %34, %3
  %10 = load i32, i32* %7, align 4
  %11 = load i32, i32* %5, align 4
  %12 = icmp slt i32 %10, %11
  br i1 %12, label %13, label %37

; <label>:13:                                     ; preds = %9
  store i32 0, i32* %8, align 4
  br label %14

; <label>:14:                                     ; preds = %30, %13
  %15 = load i32, i32* %8, align 4
  %16 = load i32, i32* %6, align 4
  %17 = icmp slt i32 %15, %16
  br i1 %17, label %18, label %33

; <label>:18:                                     ; preds = %14
  %19 = load i32, i32* %7, align 4
  %20 = load i32, i32* %8, align 4
  %21 = add nsw i32 %19, %20
  %22 = load i32, i32* %6, align 4
  %23 = load i32, i32* %7, align 4
  %24 = mul nsw i32 %22, %23
  %25 = load i32, i32* %8, align 4
  %26 = add nsw i32 %24, %25
  %27 = sext i32 %26 to i64
  %28 = load i32*, i32** %4, align 8
  %29 = getelementptr inbounds i32, i32* %28, i64 %27
  store i32 %21, i32* %29, align 4
  br label %30

; <label>:30:                                     ; preds = %18
  %31 = load i32, i32* %8, align 4
  %32 = add nsw i32 %31, 1
  store i32 %32, i32* %8, align 4
  br label %14

; <label>:33:                                     ; preds = %14
  br label %34

; <label>:34:                                     ; preds = %33
  %35 = load i32, i32* %7, align 4
  %36 = add nsw i32 %35, 1
  store i32 %36, i32* %7, align 4
  br label %9

; <label>:37:                                     ; preds = %9
  ret void
}

; Function Attrs: nounwind uwtable
define void @_Z11copy2DArrayPiS_ii(i32*, i32*, i32, i32) #11 {
  %5 = alloca i32*, align 8
  %6 = alloca i32*, align 8
  %7 = alloca i32, align 4
  %8 = alloca i32, align 4
  %9 = alloca i32, align 4
  %10 = alloca i32, align 4
  store i32* %0, i32** %5, align 8
  store i32* %1, i32** %6, align 8
  store i32 %2, i32* %7, align 4
  store i32 %3, i32* %8, align 4
  store i32 0, i32* %9, align 4
  br label %11

; <label>:11:                                     ; preds = %42, %4
  %12 = load i32, i32* %9, align 4
  %13 = load i32, i32* %7, align 4
  %14 = icmp slt i32 %12, %13
  br i1 %14, label %15, label %45

; <label>:15:                                     ; preds = %11
  store i32 0, i32* %10, align 4
  br label %16

; <label>:16:                                     ; preds = %38, %15
  %17 = load i32, i32* %10, align 4
  %18 = load i32, i32* %8, align 4
  %19 = icmp slt i32 %17, %18
  br i1 %19, label %20, label %41

; <label>:20:                                     ; preds = %16
  %21 = load i32, i32* %8, align 4
  %22 = load i32, i32* %9, align 4
  %23 = mul nsw i32 %21, %22
  %24 = load i32, i32* %10, align 4
  %25 = add nsw i32 %23, %24
  %26 = sext i32 %25 to i64
  %27 = load i32*, i32** %5, align 8
  %28 = getelementptr inbounds i32, i32* %27, i64 %26
  %29 = load i32, i32* %28, align 4
  %30 = load i32, i32* %8, align 4
  %31 = load i32, i32* %9, align 4
  %32 = mul nsw i32 %30, %31
  %33 = load i32, i32* %10, align 4
  %34 = add nsw i32 %32, %33
  %35 = sext i32 %34 to i64
  %36 = load i32*, i32** %6, align 8
  %37 = getelementptr inbounds i32, i32* %36, i64 %35
  store i32 %29, i32* %37, align 4
  br label %38

; <label>:38:                                     ; preds = %20
  %39 = load i32, i32* %10, align 4
  %40 = add nsw i32 %39, 1
  store i32 %40, i32* %10, align 4
  br label %16

; <label>:41:                                     ; preds = %16
  br label %42

; <label>:42:                                     ; preds = %41
  %43 = load i32, i32* %9, align 4
  %44 = add nsw i32 %43, 1
  store i32 %44, i32* %9, align 4
  br label %11

; <label>:45:                                     ; preds = %11
  ret void
}

; Function Attrs: uwtable
define i32* @_Z12alloc2DarrayPiii(i32*, i32, i32) #0 {
  %4 = alloca i32*, align 8
  %5 = alloca i32, align 4
  %6 = alloca i32, align 4
  store i32* %0, i32** %4, align 8
  store i32 %1, i32* %5, align 4
  store i32 %2, i32* %6, align 4
  %7 = load i32, i32* %5, align 4
  %8 = load i32, i32* %6, align 4
  %9 = mul nsw i32 %7, %8
  %10 = sext i32 %9 to i64
  %11 = call { i64, i1 } @llvm.umul.with.overflow.i64(i64 %10, i64 4)
  %12 = extractvalue { i64, i1 } %11, 1
  %13 = extractvalue { i64, i1 } %11, 0
  %14 = select i1 %12, i64 -1, i64 %13
  %15 = call i8* @_Znam(i64 %14) #17
  %16 = bitcast i8* %15 to i32*
  store i32* %16, i32** %4, align 8
  %17 = load i32*, i32** %4, align 8
  ret i32* %17
}

; Function Attrs: nounwind readnone
declare { i64, i1 } @llvm.umul.with.overflow.i64(i64, i64) #1

; Function Attrs: nobuiltin
declare noalias i8* @_Znam(i64) #12

; Function Attrs: nounwind uwtable
define void @_Z14dealloc2DarrayPiii(i32*, i32, i32) #11 {
  %4 = alloca i32*, align 8
  %5 = alloca i32, align 4
  %6 = alloca i32, align 4
  store i32* %0, i32** %4, align 8
  store i32 %1, i32* %5, align 4
  store i32 %2, i32* %6, align 4
  %7 = load i32*, i32** %4, align 8
  %8 = icmp eq i32* %7, null
  br i1 %8, label %11, label %9

; <label>:9:                                      ; preds = %3
  %10 = bitcast i32* %7 to i8*
  call void @_ZdaPv(i8* %10) #18
  br label %11

; <label>:11:                                     ; preds = %9, %3
  ret void
}

; Function Attrs: nobuiltin nounwind
declare void @_ZdaPv(i8*) #13

; Function Attrs: nounwind uwtable
define void @_Z2mmPiS_S_i(i32*, i32*, i32*, i32) #11 {
  %5 = alloca i32*, align 8
  %6 = alloca i32*, align 8
  %7 = alloca i32*, align 8
  %8 = alloca i32, align 4
  %9 = alloca i32, align 4
  %10 = alloca i32, align 4
  %11 = alloca i32, align 4
  %12 = alloca i32, align 4
  store i32* %0, i32** %5, align 8
  store i32* %1, i32** %6, align 8
  store i32* %2, i32** %7, align 8
  store i32 %3, i32* %8, align 4
  store i32 0, i32* %9, align 4
  br label %13

; <label>:13:                                     ; preds = %66, %4
  %14 = load i32, i32* %9, align 4
  %15 = load i32, i32* %8, align 4
  %16 = icmp slt i32 %14, %15
  br i1 %16, label %17, label %69

; <label>:17:                                     ; preds = %13
  store i32 0, i32* %10, align 4
  br label %18

; <label>:18:                                     ; preds = %62, %17
  %19 = load i32, i32* %10, align 4
  %20 = load i32, i32* %8, align 4
  %21 = icmp slt i32 %19, %20
  br i1 %21, label %22, label %65

; <label>:22:                                     ; preds = %18
  store i32 0, i32* %11, align 4
  store i32 0, i32* %12, align 4
  br label %23

; <label>:23:                                     ; preds = %49, %22
  %24 = load i32, i32* %12, align 4
  %25 = load i32, i32* %8, align 4
  %26 = icmp slt i32 %24, %25
  br i1 %26, label %27, label %52

; <label>:27:                                     ; preds = %23
  %28 = load i32, i32* %8, align 4
  %29 = load i32, i32* %9, align 4
  %30 = mul nsw i32 %28, %29
  %31 = load i32, i32* %12, align 4
  %32 = add nsw i32 %30, %31
  %33 = sext i32 %32 to i64
  %34 = load i32*, i32** %6, align 8
  %35 = getelementptr inbounds i32, i32* %34, i64 %33
  %36 = load i32, i32* %35, align 4
  %37 = load i32, i32* %12, align 4
  %38 = load i32, i32* %8, align 4
  %39 = mul nsw i32 %37, %38
  %40 = load i32, i32* %10, align 4
  %41 = add nsw i32 %39, %40
  %42 = sext i32 %41 to i64
  %43 = load i32*, i32** %7, align 8
  %44 = getelementptr inbounds i32, i32* %43, i64 %42
  %45 = load i32, i32* %44, align 4
  %46 = mul nsw i32 %36, %45
  %47 = load i32, i32* %11, align 4
  %48 = add nsw i32 %47, %46
  store i32 %48, i32* %11, align 4
  br label %49

; <label>:49:                                     ; preds = %27
  %50 = load i32, i32* %12, align 4
  %51 = add nsw i32 %50, 1
  store i32 %51, i32* %12, align 4
  br label %23

; <label>:52:                                     ; preds = %23
  %53 = load i32, i32* %11, align 4
  %54 = load i32, i32* %9, align 4
  %55 = load i32, i32* %8, align 4
  %56 = mul nsw i32 %54, %55
  %57 = load i32, i32* %10, align 4
  %58 = add nsw i32 %56, %57
  %59 = sext i32 %58 to i64
  %60 = load i32*, i32** %5, align 8
  %61 = getelementptr inbounds i32, i32* %60, i64 %59
  store i32 %53, i32* %61, align 4
  br label %62

; <label>:62:                                     ; preds = %52
  %63 = load i32, i32* %10, align 4
  %64 = add nsw i32 %63, 1
  store i32 %64, i32* %10, align 4
  br label %18

; <label>:65:                                     ; preds = %18
  br label %66

; <label>:66:                                     ; preds = %65
  %67 = load i32, i32* %9, align 4
  %68 = add nsw i32 %67, 1
  store i32 %68, i32* %9, align 4
  br label %13

; <label>:69:                                     ; preds = %13
  ret void
}

; Function Attrs: uwtable
define void @_Z11writeResultPKcPiS1_S1_i(i8*, i32*, i32*, i32*, i32) #0 personality i8* bitcast (i32 (...)* @__gxx_personality_v0 to i8*) {
  %6 = alloca i8*, align 8
  %7 = alloca i32*, align 8
  %8 = alloca i32*, align 8
  %9 = alloca i32*, align 8
  %10 = alloca i32, align 4
  %11 = alloca %"class.std::basic_fstream", align 8
  %12 = alloca i8*
  %13 = alloca i32
  %14 = alloca i32, align 4
  %15 = alloca i32, align 4
  %16 = alloca i32, align 4
  %17 = alloca i32, align 4
  %18 = alloca i32, align 4
  %19 = alloca i32, align 4
  store i8* %0, i8** %6, align 8
  store i32* %1, i32** %7, align 8
  store i32* %2, i32** %8, align 8
  store i32* %3, i32** %9, align 8
  store i32 %4, i32* %10, align 4
  call void @_ZNSt13basic_fstreamIcSt11char_traitsIcEEC1Ev(%"class.std::basic_fstream"* %11)
  %20 = load i8*, i8** %6, align 8
  invoke void @_ZNSt13basic_fstreamIcSt11char_traitsIcEE4openEPKcSt13_Ios_Openmode(%"class.std::basic_fstream"* %11, i8* %20, i32 16)
          to label %21 unwind label %51

; <label>:21:                                     ; preds = %5
  store i32 0, i32* %14, align 4
  br label %22

; <label>:22:                                     ; preds = %56, %21
  %23 = load i32, i32* %14, align 4
  %24 = load i32, i32* %10, align 4
  %25 = icmp slt i32 %23, %24
  br i1 %25, label %26, label %59

; <label>:26:                                     ; preds = %22
  store i32 0, i32* %15, align 4
  br label %27

; <label>:27:                                     ; preds = %48, %26
  %28 = load i32, i32* %15, align 4
  %29 = load i32, i32* %10, align 4
  %30 = icmp slt i32 %28, %29
  br i1 %30, label %31, label %55

; <label>:31:                                     ; preds = %27
  %32 = bitcast %"class.std::basic_fstream"* %11 to i8*
  %33 = getelementptr inbounds i8, i8* %32, i64 16
  %34 = bitcast i8* %33 to %"class.std::basic_ostream"*
  %35 = load i32, i32* %14, align 4
  %36 = load i32, i32* %10, align 4
  %37 = mul nsw i32 %35, %36
  %38 = load i32, i32* %15, align 4
  %39 = add nsw i32 %37, %38
  %40 = sext i32 %39 to i64
  %41 = load i32*, i32** %7, align 8
  %42 = getelementptr inbounds i32, i32* %41, i64 %40
  %43 = load i32, i32* %42, align 4
  %44 = invoke dereferenceable(272) %"class.std::basic_ostream"* @_ZNSolsEi(%"class.std::basic_ostream"* %34, i32 %43)
          to label %45 unwind label %51

; <label>:45:                                     ; preds = %31
  %46 = invoke dereferenceable(272) %"class.std::basic_ostream"* @_ZStlsISt11char_traitsIcEERSt13basic_ostreamIcT_ES5_PKc(%"class.std::basic_ostream"* dereferenceable(272) %44, i8* getelementptr inbounds ([2 x i8], [2 x i8]* @.str.87, i32 0, i32 0))
          to label %47 unwind label %51

; <label>:47:                                     ; preds = %45
  br label %48

; <label>:48:                                     ; preds = %47
  %49 = load i32, i32* %15, align 4
  %50 = add nsw i32 %49, 1
  store i32 %50, i32* %15, align 4
  br label %27

; <label>:51:                                     ; preds = %127, %117, %103, %83, %69, %45, %31, %5
  %52 = landingpad { i8*, i32 }
          cleanup
  %53 = extractvalue { i8*, i32 } %52, 0
  store i8* %53, i8** %12, align 8
  %54 = extractvalue { i8*, i32 } %52, 1
  store i32 %54, i32* %13, align 4
  call void @_ZNSt13basic_fstreamIcSt11char_traitsIcEED1Ev(%"class.std::basic_fstream"* %11) #10
  br label %129

; <label>:55:                                     ; preds = %27
  br label %56

; <label>:56:                                     ; preds = %55
  %57 = load i32, i32* %14, align 4
  %58 = add nsw i32 %57, 1
  store i32 %58, i32* %14, align 4
  br label %22

; <label>:59:                                     ; preds = %22
  store i32 0, i32* %16, align 4
  br label %60

; <label>:60:                                     ; preds = %90, %59
  %61 = load i32, i32* %16, align 4
  %62 = load i32, i32* %10, align 4
  %63 = icmp slt i32 %61, %62
  br i1 %63, label %64, label %93

; <label>:64:                                     ; preds = %60
  store i32 0, i32* %17, align 4
  br label %65

; <label>:65:                                     ; preds = %86, %64
  %66 = load i32, i32* %17, align 4
  %67 = load i32, i32* %10, align 4
  %68 = icmp slt i32 %66, %67
  br i1 %68, label %69, label %89

; <label>:69:                                     ; preds = %65
  %70 = bitcast %"class.std::basic_fstream"* %11 to i8*
  %71 = getelementptr inbounds i8, i8* %70, i64 16
  %72 = bitcast i8* %71 to %"class.std::basic_ostream"*
  %73 = load i32, i32* %16, align 4
  %74 = load i32, i32* %10, align 4
  %75 = mul nsw i32 %73, %74
  %76 = load i32, i32* %17, align 4
  %77 = add nsw i32 %75, %76
  %78 = sext i32 %77 to i64
  %79 = load i32*, i32** %8, align 8
  %80 = getelementptr inbounds i32, i32* %79, i64 %78
  %81 = load i32, i32* %80, align 4
  %82 = invoke dereferenceable(272) %"class.std::basic_ostream"* @_ZNSolsEi(%"class.std::basic_ostream"* %72, i32 %81)
          to label %83 unwind label %51

; <label>:83:                                     ; preds = %69
  %84 = invoke dereferenceable(272) %"class.std::basic_ostream"* @_ZStlsISt11char_traitsIcEERSt13basic_ostreamIcT_ES5_PKc(%"class.std::basic_ostream"* dereferenceable(272) %82, i8* getelementptr inbounds ([2 x i8], [2 x i8]* @.str.87, i32 0, i32 0))
          to label %85 unwind label %51

; <label>:85:                                     ; preds = %83
  br label %86

; <label>:86:                                     ; preds = %85
  %87 = load i32, i32* %17, align 4
  %88 = add nsw i32 %87, 1
  store i32 %88, i32* %17, align 4
  br label %65

; <label>:89:                                     ; preds = %65
  br label %90

; <label>:90:                                     ; preds = %89
  %91 = load i32, i32* %16, align 4
  %92 = add nsw i32 %91, 1
  store i32 %92, i32* %16, align 4
  br label %60

; <label>:93:                                     ; preds = %60
  store i32 0, i32* %18, align 4
  br label %94

; <label>:94:                                     ; preds = %124, %93
  %95 = load i32, i32* %18, align 4
  %96 = load i32, i32* %10, align 4
  %97 = icmp slt i32 %95, %96
  br i1 %97, label %98, label %127

; <label>:98:                                     ; preds = %94
  store i32 0, i32* %19, align 4
  br label %99

; <label>:99:                                     ; preds = %120, %98
  %100 = load i32, i32* %19, align 4
  %101 = load i32, i32* %10, align 4
  %102 = icmp slt i32 %100, %101
  br i1 %102, label %103, label %123

; <label>:103:                                    ; preds = %99
  %104 = bitcast %"class.std::basic_fstream"* %11 to i8*
  %105 = getelementptr inbounds i8, i8* %104, i64 16
  %106 = bitcast i8* %105 to %"class.std::basic_ostream"*
  %107 = load i32, i32* %18, align 4
  %108 = load i32, i32* %10, align 4
  %109 = mul nsw i32 %107, %108
  %110 = load i32, i32* %19, align 4
  %111 = add nsw i32 %109, %110
  %112 = sext i32 %111 to i64
  %113 = load i32*, i32** %9, align 8
  %114 = getelementptr inbounds i32, i32* %113, i64 %112
  %115 = load i32, i32* %114, align 4
  %116 = invoke dereferenceable(272) %"class.std::basic_ostream"* @_ZNSolsEi(%"class.std::basic_ostream"* %106, i32 %115)
          to label %117 unwind label %51

; <label>:117:                                    ; preds = %103
  %118 = invoke dereferenceable(272) %"class.std::basic_ostream"* @_ZStlsISt11char_traitsIcEERSt13basic_ostreamIcT_ES5_PKc(%"class.std::basic_ostream"* dereferenceable(272) %116, i8* getelementptr inbounds ([2 x i8], [2 x i8]* @.str.87, i32 0, i32 0))
          to label %119 unwind label %51

; <label>:119:                                    ; preds = %117
  br label %120

; <label>:120:                                    ; preds = %119
  %121 = load i32, i32* %19, align 4
  %122 = add nsw i32 %121, 1
  store i32 %122, i32* %19, align 4
  br label %99

; <label>:123:                                    ; preds = %99
  br label %124

; <label>:124:                                    ; preds = %123
  %125 = load i32, i32* %18, align 4
  %126 = add nsw i32 %125, 1
  store i32 %126, i32* %18, align 4
  br label %94

; <label>:127:                                    ; preds = %94
  invoke void @_ZNSt13basic_fstreamIcSt11char_traitsIcEE5closeEv(%"class.std::basic_fstream"* %11)
          to label %128 unwind label %51

; <label>:128:                                    ; preds = %127
  call void @_ZNSt13basic_fstreamIcSt11char_traitsIcEED1Ev(%"class.std::basic_fstream"* %11) #10
  ret void

; <label>:129:                                    ; preds = %51
  %130 = load i8*, i8** %12, align 8
  %131 = load i32, i32* %13, align 4
  %132 = insertvalue { i8*, i32 } undef, i8* %130, 0
  %133 = insertvalue { i8*, i32 } %132, i32 %131, 1
  resume { i8*, i32 } %133
}

declare i32 @__gxx_personality_v0(...)

declare void @_ZNSt13basic_fstreamIcSt11char_traitsIcEEC1Ev(%"class.std::basic_fstream"*) unnamed_addr #3

declare void @_ZNSt13basic_fstreamIcSt11char_traitsIcEE4openEPKcSt13_Ios_Openmode(%"class.std::basic_fstream"*, i8*, i32) #3

; Function Attrs: nounwind
declare void @_ZNSt13basic_fstreamIcSt11char_traitsIcEED1Ev(%"class.std::basic_fstream"*) unnamed_addr #4

declare void @_ZNSt13basic_fstreamIcSt11char_traitsIcEE5closeEv(%"class.std::basic_fstream"*) #3

; Function Attrs: norecurse uwtable
define i32 @main(i32, i8**) #14 {
  %3 = alloca i32, align 4
  %4 = alloca i32, align 4
  %5 = alloca i8**, align 8
  %6 = alloca i32*, align 8
  %7 = alloca i32*, align 8
  %8 = alloca i32*, align 8
  %9 = alloca i32, align 4
  store i32 0, i32* %3, align 4
  store i32 %0, i32* %4, align 4
  store i8** %1, i8*** %5, align 8
  %10 = load i32, i32* %4, align 4
  %11 = icmp ne i32 %10, 3
  br i1 %11, label %12, label %15

; <label>:12:                                     ; preds = %2
  %13 = call dereferenceable(272) %"class.std::basic_ostream"* @_ZStlsISt11char_traitsIcEERSt13basic_ostreamIcT_ES5_PKc(%"class.std::basic_ostream"* dereferenceable(272) @_ZSt4cout, i8* getelementptr inbounds ([32 x i8], [32 x i8]* @.str.4.91, i32 0, i32 0))
  %14 = call dereferenceable(272) %"class.std::basic_ostream"* @_ZStlsISt11char_traitsIcEERSt13basic_ostreamIcT_ES5_PKc(%"class.std::basic_ostream"* dereferenceable(272) @_ZSt4cout, i8* getelementptr inbounds ([46 x i8], [46 x i8]* @.str.5.92, i32 0, i32 0))
  call void @exit(i32 -1) #15
  unreachable

; <label>:15:                                     ; preds = %2
  %16 = load i8**, i8*** %5, align 8
  %17 = getelementptr inbounds i8*, i8** %16, i64 1
  %18 = load i8*, i8** %17, align 8
  %19 = call i32 @atoi(i8* %18) #16
  store i32 %19, i32* %9, align 4
  %20 = call dereferenceable(272) %"class.std::basic_ostream"* @_ZStlsISt11char_traitsIcEERSt13basic_ostreamIcT_ES5_PKc(%"class.std::basic_ostream"* dereferenceable(272) @_ZSt4cout, i8* getelementptr inbounds ([23 x i8], [23 x i8]* @.str.6.93, i32 0, i32 0))
  %21 = load i32, i32* %9, align 4
  %22 = call dereferenceable(272) %"class.std::basic_ostream"* @_ZNSolsEi(%"class.std::basic_ostream"* %20, i32 %21)
  %23 = call dereferenceable(272) %"class.std::basic_ostream"* @_ZStlsISt11char_traitsIcEERSt13basic_ostreamIcT_ES5_PKc(%"class.std::basic_ostream"* dereferenceable(272) %22, i8* getelementptr inbounds ([2 x i8], [2 x i8]* @.str.7.94, i32 0, i32 0))
  %24 = load i32, i32* %9, align 4
  %25 = call dereferenceable(272) %"class.std::basic_ostream"* @_ZNSolsEi(%"class.std::basic_ostream"* %23, i32 %24)
  %26 = call dereferenceable(272) %"class.std::basic_ostream"* @_ZStlsISt11char_traitsIcEERSt13basic_ostreamIcT_ES5_PKc(%"class.std::basic_ostream"* dereferenceable(272) @_ZSt4cout, i8* getelementptr inbounds ([42 x i8], [42 x i8]* @.str.8.95, i32 0, i32 0))
  %27 = load i32*, i32** %6, align 8
  %28 = load i32, i32* %9, align 4
  %29 = load i32, i32* %9, align 4
  %30 = call i32* @_Z12alloc2DarrayPiii(i32* %27, i32 %28, i32 %29)
  store i32* %30, i32** %6, align 8
  %31 = load i32*, i32** %7, align 8
  %32 = load i32, i32* %9, align 4
  %33 = load i32, i32* %9, align 4
  %34 = call i32* @_Z12alloc2DarrayPiii(i32* %31, i32 %32, i32 %33)
  store i32* %34, i32** %7, align 8
  %35 = load i32*, i32** %8, align 8
  %36 = load i32, i32* %9, align 4
  %37 = load i32, i32* %9, align 4
  %38 = call i32* @_Z12alloc2DarrayPiii(i32* %35, i32 %36, i32 %37)
  store i32* %38, i32** %8, align 8
  %39 = call dereferenceable(272) %"class.std::basic_ostream"* @_ZStlsISt11char_traitsIcEERSt13basic_ostreamIcT_ES5_PKc(%"class.std::basic_ostream"* dereferenceable(272) @_ZSt4cout, i8* getelementptr inbounds ([29 x i8], [29 x i8]* @.str.9.96, i32 0, i32 0))
  %40 = load i32*, i32** %6, align 8
  %41 = load i32, i32* %9, align 4
  %42 = load i32, i32* %9, align 4
  call void @_Z11init2DArrayPiii(i32* %40, i32 %41, i32 %42)
  %43 = load i32*, i32** %7, align 8
  %44 = load i32, i32* %9, align 4
  %45 = load i32, i32* %9, align 4
  call void @_Z11init2DArrayPiii(i32* %43, i32 %44, i32 %45)
  %46 = call dereferenceable(272) %"class.std::basic_ostream"* @_ZStlsISt11char_traitsIcEERSt13basic_ostreamIcT_ES5_PKc(%"class.std::basic_ostream"* dereferenceable(272) @_ZSt4cout, i8* getelementptr inbounds ([42 x i8], [42 x i8]* @.str.10.97, i32 0, i32 0))
  %47 = load i32*, i32** %8, align 8
  %48 = load i32*, i32** %6, align 8
  %49 = load i32*, i32** %7, align 8
  %50 = load i32, i32* %9, align 4
  call void @_Z2mmPiS_S_i(i32* %47, i32* %48, i32* %49, i32 %50)
  %51 = call dereferenceable(272) %"class.std::basic_ostream"* @_ZStlsISt11char_traitsIcEERSt13basic_ostreamIcT_ES5_PKc(%"class.std::basic_ostream"* dereferenceable(272) @_ZSt4cout, i8* getelementptr inbounds ([26 x i8], [26 x i8]* @.str.11.98, i32 0, i32 0))
  %52 = load i8**, i8*** %5, align 8
  %53 = getelementptr inbounds i8*, i8** %52, i64 2
  %54 = load i8*, i8** %53, align 8
  %55 = call dereferenceable(272) %"class.std::basic_ostream"* @_ZStlsISt11char_traitsIcEERSt13basic_ostreamIcT_ES5_PKc(%"class.std::basic_ostream"* dereferenceable(272) %51, i8* %54)
  %56 = call dereferenceable(272) %"class.std::basic_ostream"* @_ZStlsISt11char_traitsIcEERSt13basic_ostreamIcT_ES5_PKc(%"class.std::basic_ostream"* dereferenceable(272) %55, i8* getelementptr inbounds ([3 x i8], [3 x i8]* @.str.12.99, i32 0, i32 0))
  %57 = load i8**, i8*** %5, align 8
  %58 = getelementptr inbounds i8*, i8** %57, i64 2
  %59 = load i8*, i8** %58, align 8
  %60 = load i32*, i32** %6, align 8
  %61 = load i32*, i32** %7, align 8
  %62 = load i32*, i32** %8, align 8
  %63 = load i32, i32* %9, align 4
  call void @_Z11writeResultPKcPiS1_S1_i(i8* %59, i32* %60, i32* %61, i32* %62, i32 %63)
  %64 = call dereferenceable(272) %"class.std::basic_ostream"* @_ZStlsISt11char_traitsIcEERSt13basic_ostreamIcT_ES5_PKc(%"class.std::basic_ostream"* dereferenceable(272) @_ZSt4cout, i8* getelementptr inbounds ([30 x i8], [30 x i8]* @.str.13.100, i32 0, i32 0))
  %65 = load i32*, i32** %6, align 8
  %66 = load i32, i32* %9, align 4
  %67 = load i32, i32* %9, align 4
  call void @_Z14dealloc2DarrayPiii(i32* %65, i32 %66, i32 %67)
  %68 = load i32*, i32** %7, align 8
  %69 = load i32, i32* %9, align 4
  %70 = load i32, i32* %9, align 4
  call void @_Z14dealloc2DarrayPiii(i32* %68, i32 %69, i32 %70)
  %71 = load i32*, i32** %8, align 8
  %72 = load i32, i32* %9, align 4
  %73 = load i32, i32* %9, align 4
  call void @_Z14dealloc2DarrayPiii(i32* %71, i32 %72, i32 %73)
  %74 = call dereferenceable(272) %"class.std::basic_ostream"* @_ZStlsISt11char_traitsIcEERSt13basic_ostreamIcT_ES5_PKc(%"class.std::basic_ostream"* dereferenceable(272) @_ZSt4cout, i8* getelementptr inbounds ([29 x i8], [29 x i8]* @.str.14.101, i32 0, i32 0))
  ret i32 0
}

attributes #0 = { uwtable "disable-tail-calls"="false" "less-precise-fpmad"="false" "no-frame-pointer-elim"="true" "no-frame-pointer-elim-non-leaf" "no-infs-fp-math"="false" "no-jump-tables"="false" "no-nans-fp-math"="false" "stack-protector-buffer-size"="8" "target-cpu"="x86-64" "target-features"="+fxsr,+mmx,+sse,+sse2,+x87" "unsafe-fp-math"="false" "use-soft-float"="false" }
attributes #1 = { nounwind readnone }
attributes #2 = { inlinehint uwtable "disable-tail-calls"="false" "less-precise-fpmad"="false" "no-frame-pointer-elim"="true" "no-frame-pointer-elim-non-leaf" "no-infs-fp-math"="false" "no-jump-tables"="false" "no-nans-fp-math"="false" "stack-protector-buffer-size"="8" "target-cpu"="x86-64" "target-features"="+fxsr,+mmx,+sse,+sse2,+x87" "unsafe-fp-math"="false" "use-soft-float"="false" }
attributes #3 = { "disable-tail-calls"="false" "less-precise-fpmad"="false" "no-frame-pointer-elim"="true" "no-frame-pointer-elim-non-leaf" "no-infs-fp-math"="false" "no-nans-fp-math"="false" "stack-protector-buffer-size"="8" "target-cpu"="x86-64" "target-features"="+fxsr,+mmx,+sse,+sse2,+x87" "unsafe-fp-math"="false" "use-soft-float"="false" }
attributes #4 = { nounwind "disable-tail-calls"="false" "less-precise-fpmad"="false" "no-frame-pointer-elim"="true" "no-frame-pointer-elim-non-leaf" "no-infs-fp-math"="false" "no-nans-fp-math"="false" "stack-protector-buffer-size"="8" "target-cpu"="x86-64" "target-features"="+fxsr,+mmx,+sse,+sse2,+x87" "unsafe-fp-math"="false" "use-soft-float"="false" }
attributes #5 = { noreturn nounwind "disable-tail-calls"="false" "less-precise-fpmad"="false" "no-frame-pointer-elim"="true" "no-frame-pointer-elim-non-leaf" "no-infs-fp-math"="false" "no-nans-fp-math"="false" "stack-protector-buffer-size"="8" "target-cpu"="x86-64" "target-features"="+fxsr,+mmx,+sse,+sse2,+x87" "unsafe-fp-math"="false" "use-soft-float"="false" }
attributes #6 = { inlinehint nounwind uwtable "disable-tail-calls"="false" "less-precise-fpmad"="false" "no-frame-pointer-elim"="true" "no-frame-pointer-elim-non-leaf" "no-infs-fp-math"="false" "no-jump-tables"="false" "no-nans-fp-math"="false" "stack-protector-buffer-size"="8" "target-cpu"="x86-64" "target-features"="+fxsr,+mmx,+sse,+sse2,+x87" "unsafe-fp-math"="false" "use-soft-float"="false" }
attributes #7 = { nounwind readonly "disable-tail-calls"="false" "less-precise-fpmad"="false" "no-frame-pointer-elim"="true" "no-frame-pointer-elim-non-leaf" "no-infs-fp-math"="false" "no-nans-fp-math"="false" "stack-protector-buffer-size"="8" "target-cpu"="x86-64" "target-features"="+fxsr,+mmx,+sse,+sse2,+x87" "unsafe-fp-math"="false" "use-soft-float"="false" }
attributes #8 = { argmemonly nounwind }
attributes #9 = { nounwind readnone "disable-tail-calls"="false" "less-precise-fpmad"="false" "no-frame-pointer-elim"="true" "no-frame-pointer-elim-non-leaf" "no-infs-fp-math"="false" "no-nans-fp-math"="false" "stack-protector-buffer-size"="8" "target-cpu"="x86-64" "target-features"="+fxsr,+mmx,+sse,+sse2,+x87" "unsafe-fp-math"="false" "use-soft-float"="false" }
attributes #10 = { nounwind }
attributes #11 = { nounwind uwtable "disable-tail-calls"="false" "less-precise-fpmad"="false" "no-frame-pointer-elim"="true" "no-frame-pointer-elim-non-leaf" "no-infs-fp-math"="false" "no-jump-tables"="false" "no-nans-fp-math"="false" "stack-protector-buffer-size"="8" "target-cpu"="x86-64" "target-features"="+fxsr,+mmx,+sse,+sse2,+x87" "unsafe-fp-math"="false" "use-soft-float"="false" }
attributes #12 = { nobuiltin "disable-tail-calls"="false" "less-precise-fpmad"="false" "no-frame-pointer-elim"="true" "no-frame-pointer-elim-non-leaf" "no-infs-fp-math"="false" "no-nans-fp-math"="false" "stack-protector-buffer-size"="8" "target-cpu"="x86-64" "target-features"="+fxsr,+mmx,+sse,+sse2,+x87" "unsafe-fp-math"="false" "use-soft-float"="false" }
attributes #13 = { nobuiltin nounwind "disable-tail-calls"="false" "less-precise-fpmad"="false" "no-frame-pointer-elim"="true" "no-frame-pointer-elim-non-leaf" "no-infs-fp-math"="false" "no-nans-fp-math"="false" "stack-protector-buffer-size"="8" "target-cpu"="x86-64" "target-features"="+fxsr,+mmx,+sse,+sse2,+x87" "unsafe-fp-math"="false" "use-soft-float"="false" }
attributes #14 = { norecurse uwtable "disable-tail-calls"="false" "less-precise-fpmad"="false" "no-frame-pointer-elim"="true" "no-frame-pointer-elim-non-leaf" "no-infs-fp-math"="false" "no-jump-tables"="false" "no-nans-fp-math"="false" "stack-protector-buffer-size"="8" "target-cpu"="x86-64" "target-features"="+fxsr,+mmx,+sse,+sse2,+x87" "unsafe-fp-math"="false" "use-soft-float"="false" }
attributes #15 = { noreturn nounwind }
attributes #16 = { nounwind readonly }
attributes #17 = { builtin }
attributes #18 = { builtin nounwind }

!llvm.dbg.cu = !{!0}
!llvm.ident = !{!173, !173}
!llvm.module.flags = !{!174, !175}

!0 = distinct !DICompileUnit(language: DW_LANG_C_plus_plus, file: !1, producer: "clang version 3.9.0 (trunk 266339) (llvm/trunk 266338)", isOptimized: false, runtimeVersion: 0, emissionKind: FullDebug, enums: !2, retainedTypes: !36, subprograms: !59, globals: !138)
!1 = !DIFile(filename: "/home/vcsharma/apps/tools/vulfi/master/runtime/Corrupt.C", directory: "/home/vcsharma/apps/presage/examples/src/mm")
!2 = !{!3, !10, !21, !26}
!3 = !DICompositeType(tag: DW_TAG_enumeration_type, name: "FIAlgo", file: !4, line: 24, size: 32, align: 32, elements: !5, identifier: "_ZTS6FIAlgo")
!4 = !DIFile(filename: "/home/vcsharma/apps/tools/vulfi/master/runtime/Corrupt.h", directory: "/home/vcsharma/apps/presage/examples/src/mm")
!5 = !{!6, !7, !8, !9}
!6 = !DIEnumerator(name: "FI_CBR", value: 0)
!7 = !DIEnumerator(name: "FI_ABR", value: 1)
!8 = !DIEnumerator(name: "FI_MSK", value: 2)
!9 = !DIEnumerator(name: "FI_ERROR", value: 3)
!10 = !DICompositeType(tag: DW_TAG_enumeration_type, name: "FIByteRange", file: !4, line: 32, size: 32, align: 32, elements: !11, identifier: "_ZTS11FIByteRange")
!11 = !{!12, !13, !14, !15, !16, !17, !18, !19, !20}
!12 = !DIEnumerator(name: "FIBR_1", value: 1)
!13 = !DIEnumerator(name: "FIBR_2", value: 2)
!14 = !DIEnumerator(name: "FIBR_3", value: 3)
!15 = !DIEnumerator(name: "FIBR_4", value: 4)
!16 = !DIEnumerator(name: "FIBR_5", value: 5)
!17 = !DIEnumerator(name: "FIBR_6", value: 6)
!18 = !DIEnumerator(name: "FIBR_7", value: 7)
!19 = !DIEnumerator(name: "FIBR_8", value: 8)
!20 = !DIEnumerator(name: "FIBR_ERROR", value: 9)
!21 = !DICompositeType(tag: DW_TAG_enumeration_type, name: "FIDirection", file: !4, line: 45, size: 32, align: 32, elements: !22, identifier: "_ZTS11FIDirection")
!22 = !{!23, !24, !25}
!23 = !DIEnumerator(name: "FID_LSB", value: 0)
!24 = !DIEnumerator(name: "FID_MSB", value: 1)
!25 = !DIEnumerator(name: "FID_ERROR", value: 2)
!26 = !DICompositeType(tag: DW_TAG_enumeration_type, name: "DataType", file: !4, line: 12, size: 32, align: 32, elements: !27, identifier: "_ZTS8DataType")
!27 = !{!28, !29, !30, !31, !32, !33, !34, !35}
!28 = !DIEnumerator(name: "IntTy1", value: 0)
!29 = !DIEnumerator(name: "IntTy8", value: 1)
!30 = !DIEnumerator(name: "IntTy16", value: 2)
!31 = !DIEnumerator(name: "IntTy32", value: 3)
!32 = !DIEnumerator(name: "IntTy64", value: 4)
!33 = !DIEnumerator(name: "FloatTy", value: 5)
!34 = !DIEnumerator(name: "DoubleTy", value: 6)
!35 = !DIEnumerator(name: "StringTy", value: 7)
!36 = !{!3, !10, !21, !37, !26, !39, !40, !41, !42, !51, !52, !54, !56, !58}
!37 = !DICompositeType(tag: DW_TAG_structure_type, name: "_IO_FILE", file: !38, line: 245, size: 1728, align: 64, flags: DIFlagFwdDecl, identifier: "_ZTS8_IO_FILE")
!38 = !DIFile(filename: "/usr/include/libio.h", directory: "/home/vcsharma/apps/presage/examples/src/mm")
!39 = !DIDerivedType(tag: DW_TAG_pointer_type, baseType: null, size: 64, align: 64)
!40 = !DIBasicType(name: "long long int", size: 64, align: 64, encoding: DW_ATE_signed)
!41 = !DIBasicType(name: "double", size: 64, align: 64, encoding: DW_ATE_float)
!42 = !DICompositeType(tag: DW_TAG_structure_type, name: "timeval", file: !43, line: 30, size: 128, align: 64, elements: !44, identifier: "_ZTS7timeval")
!43 = !DIFile(filename: "/usr/include/x86_64-linux-gnu/bits/time.h", directory: "/home/vcsharma/apps/presage/examples/src/mm")
!44 = !{!45, !49}
!45 = !DIDerivedType(tag: DW_TAG_member, name: "tv_sec", scope: !"_ZTS7timeval", file: !43, line: 32, baseType: !46, size: 64, align: 64)
!46 = !DIDerivedType(tag: DW_TAG_typedef, name: "__time_t", file: !47, line: 139, baseType: !48)
!47 = !DIFile(filename: "/usr/include/x86_64-linux-gnu/bits/types.h", directory: "/home/vcsharma/apps/presage/examples/src/mm")
!48 = !DIBasicType(name: "long int", size: 64, align: 64, encoding: DW_ATE_signed)
!49 = !DIDerivedType(tag: DW_TAG_member, name: "tv_usec", scope: !"_ZTS7timeval", file: !43, line: 33, baseType: !50, size: 64, align: 64, offset: 64)
!50 = !DIDerivedType(tag: DW_TAG_typedef, name: "__suseconds_t", file: !47, line: 141, baseType: !48)
!51 = !DIDerivedType(tag: DW_TAG_pointer_type, baseType: !40, size: 64, align: 64)
!52 = !DIDerivedType(tag: DW_TAG_pointer_type, baseType: !53, size: 64, align: 64)
!53 = !DIBasicType(name: "int", size: 32, align: 32, encoding: DW_ATE_signed)
!54 = !DIDerivedType(tag: DW_TAG_pointer_type, baseType: !55, size: 64, align: 64)
!55 = !DIBasicType(name: "char", size: 8, align: 8, encoding: DW_ATE_signed_char)
!56 = !DIDerivedType(tag: DW_TAG_pointer_type, baseType: !57, size: 64, align: 64)
!57 = !DIBasicType(name: "float", size: 32, align: 32, encoding: DW_ATE_float)
!58 = !DIDerivedType(tag: DW_TAG_pointer_type, baseType: !41, size: 64, align: 64)
!59 = !{!60, !64, !65, !70, !73, !77, !78, !81, !84, !87, !90, !96, !99, !100, !103, !106, !107, !110, !113, !114, !115, !118, !119, !122, !126, !129, !132, !135}
!60 = distinct !DISubprogram(name: "printFaultSitesData", scope: !1, file: !1, line: 600, type: !61, isLocal: false, isDefinition: true, scopeLine: 600, flags: DIFlagPrototyped, isOptimized: false, variables: !63)
!61 = !DISubroutineType(types: !62)
!62 = !{!53}
!63 = !{}
!64 = distinct !DISubprogram(name: "printFaultInjectionData", scope: !1, file: !1, line: 637, type: !61, isLocal: false, isDefinition: true, scopeLine: 637, flags: DIFlagPrototyped, isOptimized: false, variables: !63)
!65 = distinct !DISubprogram(name: "injectSoftErrorIntTy1", linkageName: "_Z21injectSoftErrorIntTy1iPKci", scope: !1, file: !1, line: 686, type: !66, isLocal: false, isDefinition: true, scopeLine: 686, flags: DIFlagPrototyped, isOptimized: false, variables: !63)
!66 = !DISubroutineType(types: !67)
!67 = !{!53, !53, !68, !53}
!68 = !DIDerivedType(tag: DW_TAG_pointer_type, baseType: !69, size: 64, align: 64)
!69 = !DIDerivedType(tag: DW_TAG_const_type, baseType: !55)
!70 = distinct !DISubprogram(name: "injectSoftErrorIntTy8", linkageName: "_Z21injectSoftErrorIntTy8cPKcc", scope: !1, file: !1, line: 727, type: !71, isLocal: false, isDefinition: true, scopeLine: 727, flags: DIFlagPrototyped, isOptimized: false, variables: !63)
!71 = !DISubroutineType(types: !72)
!72 = !{!53, !55, !68, !55}
!73 = distinct !DISubprogram(name: "injectSoftErrorIntTy16", linkageName: "_Z22injectSoftErrorIntTy16sPKcs", scope: !1, file: !1, line: 762, type: !74, isLocal: false, isDefinition: true, scopeLine: 762, flags: DIFlagPrototyped, isOptimized: false, variables: !63)
!74 = !DISubroutineType(types: !75)
!75 = !{!76, !76, !68, !76}
!76 = !DIBasicType(name: "short", size: 16, align: 16, encoding: DW_ATE_signed)
!77 = distinct !DISubprogram(name: "injectSoftErrorIntTy32", linkageName: "_Z22injectSoftErrorIntTy32iPKci", scope: !1, file: !1, line: 797, type: !66, isLocal: false, isDefinition: true, scopeLine: 797, flags: DIFlagPrototyped, isOptimized: false, variables: !63)
!78 = distinct !DISubprogram(name: "injectSoftErrorIntTy64", linkageName: "_Z22injectSoftErrorIntTy64xPKcx", scope: !1, file: !1, line: 832, type: !79, isLocal: false, isDefinition: true, scopeLine: 832, flags: DIFlagPrototyped, isOptimized: false, variables: !63)
!79 = !DISubroutineType(types: !80)
!80 = !{!40, !40, !68, !40}
!81 = distinct !DISubprogram(name: "injectSoftErrorFloatTy", linkageName: "_Z22injectSoftErrorFloatTyfPKcf", scope: !1, file: !1, line: 867, type: !82, isLocal: false, isDefinition: true, scopeLine: 867, flags: DIFlagPrototyped, isOptimized: false, variables: !63)
!82 = !DISubroutineType(types: !83)
!83 = !{!57, !57, !68, !57}
!84 = distinct !DISubprogram(name: "injectSoftErrorDoubleTy", linkageName: "_Z23injectSoftErrorDoubleTydPKcd", scope: !1, file: !1, line: 903, type: !85, isLocal: false, isDefinition: true, scopeLine: 903, flags: DIFlagPrototyped, isOptimized: false, variables: !63)
!85 = !DISubroutineType(types: !86)
!86 = !{!41, !41, !68, !41}
!87 = distinct !DISubprogram(name: "profilePresage", linkageName: "_Z14profilePresagexPixS_PKc", scope: !1, file: !1, line: 937, type: !88, isLocal: false, isDefinition: true, scopeLine: 941, flags: DIFlagPrototyped, isOptimized: false, variables: !63)
!88 = !DISubroutineType(types: !89)
!89 = !{null, !40, !52, !40, !52, !68}
!90 = distinct !DISubprogram(name: "getFD", linkageName: "_Z5getFDPKcS0_", scope: !1, file: !1, line: 259, type: !91, isLocal: false, isDefinition: true, scopeLine: 259, flags: DIFlagPrototyped, isOptimized: false, variables: !63)
!91 = !DISubroutineType(types: !92)
!92 = !{!93, !68, !68}
!93 = !DIDerivedType(tag: DW_TAG_pointer_type, baseType: !94, size: 64, align: 64)
!94 = !DIDerivedType(tag: DW_TAG_typedef, name: "FILE", file: !95, line: 48, baseType: !"_ZTS8_IO_FILE")
!95 = !DIFile(filename: "/usr/include/stdio.h", directory: "/home/vcsharma/apps/presage/examples/src/mm")
!96 = distinct !DISubprogram(name: "updateFIParams", linkageName: "_Z14updateFIParamsv", scope: !1, file: !1, line: 368, type: !97, isLocal: false, isDefinition: true, scopeLine: 368, flags: DIFlagPrototyped, isOptimized: false, variables: !63)
!97 = !DISubroutineType(types: !98)
!98 = !{null}
!99 = distinct !DISubprogram(name: "updateTimeStamp", linkageName: "_Z15updateTimeStampv", scope: !1, file: !1, line: 87, type: !97, isLocal: false, isDefinition: true, scopeLine: 87, flags: DIFlagPrototyped, isOptimized: false, variables: !63)
!100 = distinct !DISubprogram(name: "getStrFieldByIndex", linkageName: "_Z18getStrFieldByIndexPcPKci", scope: !1, file: !1, line: 270, type: !101, isLocal: false, isDefinition: true, scopeLine: 270, flags: DIFlagPrototyped, isOptimized: false, variables: !63)
!101 = !DISubroutineType(types: !102)
!102 = !{!54, !54, !68, !53}
!103 = distinct !DISubprogram(name: "processParams", linkageName: "_Z13processParamsPKcS0_", scope: !1, file: !1, line: 307, type: !104, isLocal: false, isDefinition: true, scopeLine: 307, flags: DIFlagPrototyped, isOptimized: false, variables: !63)
!104 = !DISubroutineType(types: !105)
!105 = !{null, !68, !68}
!106 = distinct !DISubprogram(name: "updateFSIdx", linkageName: "_Z11updateFSIdxv", scope: !1, file: !1, line: 126, type: !97, isLocal: false, isDefinition: true, scopeLine: 126, flags: DIFlagPrototyped, isOptimized: false, variables: !63)
!107 = distinct !DISubprogram(name: "gen64bitRand", linkageName: "_Z12gen64bitRandv", scope: !1, file: !1, line: 111, type: !108, isLocal: false, isDefinition: true, scopeLine: 111, flags: DIFlagPrototyped, isOptimized: false, variables: !63)
!108 = !DISubroutineType(types: !109)
!109 = !{!40}
!110 = distinct !DISubprogram(name: "file_exists", linkageName: "_Z11file_existsPKc", scope: !1, file: !1, line: 193, type: !111, isLocal: false, isDefinition: true, scopeLine: 193, flags: DIFlagPrototyped, isOptimized: false, variables: !63)
!111 = !DISubroutineType(types: !112)
!112 = !{!53, !68}
!113 = distinct !DISubprogram(name: "printParams", linkageName: "_Z11printParamsv", scope: !1, file: !1, line: 297, type: !97, isLocal: false, isDefinition: true, scopeLine: 297, flags: DIFlagPrototyped, isOptimized: false, variables: !63)
!114 = distinct !DISubprogram(name: "checkParams", linkageName: "_Z11checkParamsv", scope: !1, file: !1, line: 287, type: !97, isLocal: false, isDefinition: true, scopeLine: 287, flags: DIFlagPrototyped, isOptimized: false, variables: !63)
!115 = distinct !DISubprogram(name: "checkMask", linkageName: "_Z9checkMaskPvi", scope: !1, file: !1, line: 104, type: !116, isLocal: false, isDefinition: true, scopeLine: 104, flags: DIFlagPrototyped, isOptimized: false, variables: !63)
!116 = !DISubroutineType(types: !117)
!117 = !{!53, !39, !53}
!118 = distinct !DISubprogram(name: "matchDynFSIdx", linkageName: "_Z13matchDynFSIdxv", scope: !1, file: !1, line: 173, type: !61, isLocal: false, isDefinition: true, scopeLine: 173, flags: DIFlagPrototyped, isOptimized: false, variables: !63)
!119 = distinct !DISubprogram(name: "getIntervalIdx", linkageName: "_Z14getIntervalIdxx", scope: !1, file: !1, line: 166, type: !120, isLocal: false, isDefinition: true, scopeLine: 166, flags: DIFlagPrototyped, isOptimized: false, variables: !63)
!120 = !DISubroutineType(types: !121)
!121 = !{!53, !40}
!122 = distinct !DISubprogram(name: "flipBit", linkageName: "_Z7flipBitPvj8DataType6FIAlgo", scope: !1, file: !1, line: 569, type: !123, isLocal: false, isDefinition: true, scopeLine: 572, flags: DIFlagPrototyped, isOptimized: false, variables: !63)
!123 = !DISubroutineType(types: !124)
!124 = !{!53, !39, !125, !"_ZTS8DataType", !"_ZTS6FIAlgo"}
!125 = !DIBasicType(name: "unsigned int", size: 32, align: 32, encoding: DW_ATE_unsigned)
!126 = distinct !DISubprogram(name: "getBitPos", linkageName: "_Z9getBitPosj8DataType6FIAlgo", scope: !1, file: !1, line: 545, type: !127, isLocal: false, isDefinition: true, scopeLine: 547, flags: DIFlagPrototyped, isOptimized: false, variables: !63)
!127 = !DISubroutineType(types: !128)
!128 = !{!53, !125, !"_ZTS8DataType", !"_ZTS6FIAlgo"}
!129 = distinct !DISubprogram(name: "getBitPosCBR", linkageName: "_Z12getBitPosCBRj", scope: !1, file: !1, line: 478, type: !130, isLocal: false, isDefinition: true, scopeLine: 478, flags: DIFlagPrototyped, isOptimized: false, variables: !63)
!130 = !DISubroutineType(types: !131)
!131 = !{!53, !125}
!132 = distinct !DISubprogram(name: "getBitPosABR", linkageName: "_Z12getBitPosABR8DataType", scope: !1, file: !1, line: 514, type: !133, isLocal: false, isDefinition: true, scopeLine: 514, flags: DIFlagPrototyped, isOptimized: false, variables: !63)
!133 = !DISubroutineType(types: !134)
!134 = !{!53, !"_ZTS8DataType"}
!135 = distinct !DISubprogram(name: "writeFIData", linkageName: "_Z11writeFIDataPKcPvS1_S1_8DataTypeS0_", scope: !1, file: !1, line: 203, type: !136, isLocal: false, isDefinition: true, scopeLine: 203, flags: DIFlagPrototyped, isOptimized: false, variables: !63)
!136 = !DISubroutineType(types: !137)
!137 = !{null, !68, !39, !39, !39, !"_ZTS8DataType", !68}
!138 = !{!139, !140, !141, !142, !143, !144, !145, !146, !147, !148, !149, !150, !151, !152, !153, !154, !155, !156, !157, !158, !159, !160, !161, !162, !163, !164, !165, !166, !167, !168, !169, !170, !171, !172}
!139 = !DIGlobalVariable(name: "dynFSCount", scope: !0, file: !1, line: 10, type: !40, isLocal: false, isDefinition: true, variable: i64* @dynFSCount)
!140 = !DIGlobalVariable(name: "detectCounter", scope: !0, file: !1, line: 13, type: !40, isLocal: false, isDefinition: true, variable: i64* @detectCounter)
!141 = !DIGlobalVariable(name: "dynFSCounter", scope: !0, file: !1, line: 16, type: !40, isLocal: false, isDefinition: true, variable: i64* @dynFSCounter)
!142 = !DIGlobalVariable(name: "intvsz", scope: !0, file: !1, line: 19, type: !40, isLocal: false, isDefinition: true, variable: i64* @intvsz)
!143 = !DIGlobalVariable(name: "intvCount", scope: !0, file: !1, line: 22, type: !40, isLocal: false, isDefinition: true, variable: i64* @intvCount)
!144 = !DIGlobalVariable(name: "dynFSIdx", scope: !0, file: !1, line: 26, type: !51, isLocal: false, isDefinition: true, variable: i64** @dynFSIdx)
!145 = !DIGlobalVariable(name: "fsIntTy1", scope: !0, file: !1, line: 29, type: !40, isLocal: false, isDefinition: true, variable: i64* @fsIntTy1)
!146 = !DIGlobalVariable(name: "fsIntTy8", scope: !0, file: !1, line: 30, type: !40, isLocal: false, isDefinition: true, variable: i64* @fsIntTy8)
!147 = !DIGlobalVariable(name: "fsIntTy16", scope: !0, file: !1, line: 31, type: !40, isLocal: false, isDefinition: true, variable: i64* @fsIntTy16)
!148 = !DIGlobalVariable(name: "fsIntTy32", scope: !0, file: !1, line: 32, type: !40, isLocal: false, isDefinition: true, variable: i64* @fsIntTy32)
!149 = !DIGlobalVariable(name: "fsIntTy64", scope: !0, file: !1, line: 33, type: !40, isLocal: false, isDefinition: true, variable: i64* @fsIntTy64)
!150 = !DIGlobalVariable(name: "fsFloatTy", scope: !0, file: !1, line: 34, type: !40, isLocal: false, isDefinition: true, variable: i64* @fsFloatTy)
!151 = !DIGlobalVariable(name: "fsDoubleTy", scope: !0, file: !1, line: 35, type: !40, isLocal: false, isDefinition: true, variable: i64* @fsDoubleTy)
!152 = !DIGlobalVariable(name: "fiIntTy1", scope: !0, file: !1, line: 38, type: !40, isLocal: false, isDefinition: true, variable: i64* @fiIntTy1)
!153 = !DIGlobalVariable(name: "fiIntTy8", scope: !0, file: !1, line: 39, type: !40, isLocal: false, isDefinition: true, variable: i64* @fiIntTy8)
!154 = !DIGlobalVariable(name: "fiIntTy16", scope: !0, file: !1, line: 40, type: !40, isLocal: false, isDefinition: true, variable: i64* @fiIntTy16)
!155 = !DIGlobalVariable(name: "fiIntTy32", scope: !0, file: !1, line: 41, type: !40, isLocal: false, isDefinition: true, variable: i64* @fiIntTy32)
!156 = !DIGlobalVariable(name: "fiIntTy64", scope: !0, file: !1, line: 42, type: !40, isLocal: false, isDefinition: true, variable: i64* @fiIntTy64)
!157 = !DIGlobalVariable(name: "fiFloatTy", scope: !0, file: !1, line: 43, type: !40, isLocal: false, isDefinition: true, variable: i64* @fiFloatTy)
!158 = !DIGlobalVariable(name: "fiDoubleTy", scope: !0, file: !1, line: 44, type: !40, isLocal: false, isDefinition: true, variable: i64* @fiDoubleTy)
!159 = !DIGlobalVariable(name: "fialg", scope: !0, file: !1, line: 47, type: !"_ZTS6FIAlgo", isLocal: false, isDefinition: true, variable: i32* @fialg)
!160 = !DIGlobalVariable(name: "fibr", scope: !0, file: !1, line: 50, type: !"_ZTS11FIByteRange", isLocal: false, isDefinition: true, variable: i32* @fibr)
!161 = !DIGlobalVariable(name: "fid", scope: !0, file: !1, line: 53, type: !"_ZTS11FIDirection", isLocal: false, isDefinition: true, variable: i32* @fid)
!162 = !DIGlobalVariable(name: "ef", scope: !0, file: !1, line: 56, type: !40, isLocal: false, isDefinition: true, variable: i64* @ef)
!163 = !DIGlobalVariable(name: "tf", scope: !0, file: !1, line: 59, type: !40, isLocal: false, isDefinition: true, variable: i64* @tf)
!164 = !DIGlobalVariable(name: "fidatardflag", scope: !0, file: !1, line: 62, type: !53, isLocal: false, isDefinition: true, variable: i32* @fidatardflag)
!165 = !DIGlobalVariable(name: "bl", scope: !0, file: !1, line: 65, type: !53, isLocal: false, isDefinition: true, variable: i32* @bl)
!166 = !DIGlobalVariable(name: "bu", scope: !0, file: !1, line: 68, type: !53, isLocal: false, isDefinition: true, variable: i32* @bu)
!167 = !DIGlobalVariable(name: "pfs", scope: !0, file: !1, line: 71, type: !53, isLocal: false, isDefinition: true, variable: i32* @pfs)
!168 = !DIGlobalVariable(name: "fiParams", scope: !0, file: !1, line: 74, type: !68, isLocal: false, isDefinition: true, variable: i8** @fiParams)
!169 = !DIGlobalVariable(name: "fiStat", scope: !0, file: !1, line: 77, type: !68, isLocal: false, isDefinition: true, variable: i8** @fiStat)
!170 = !DIGlobalVariable(name: "fiCount", scope: !0, file: !1, line: 78, type: !68, isLocal: false, isDefinition: true, variable: i8** @fiCount)
!171 = !DIGlobalVariable(name: "fsStat", scope: !0, file: !1, line: 81, type: !68, isLocal: false, isDefinition: true, variable: i8** @fsStat)
!172 = !DIGlobalVariable(name: "execKey", scope: !0, file: !1, line: 85, type: !48, isLocal: false, isDefinition: true, variable: i64* @execKey)
!173 = !{!"clang version 3.9.0 (trunk 266339) (llvm/trunk 266338)"}
!174 = !{i32 2, !"Dwarf Version", i32 4}
!175 = !{i32 2, !"Debug Info Version", i32 3}
!176 = !DILocalVariable(name: "fp", scope: !60, file: !1, line: 604, type: !93)
!177 = !DIExpression()
!178 = !DILocation(line: 604, column: 9, scope: !60)
!179 = !DILocalVariable(name: "faultSites", scope: !60, file: !1, line: 605, type: !40)
!180 = !DILocation(line: 605, column: 13, scope: !60)
!181 = !DILocation(line: 606, column: 6, scope: !182)
!182 = distinct !DILexicalBlock(scope: !60, file: !1, line: 606, column: 6)
!183 = !DILocation(line: 606, column: 9, scope: !182)
!184 = !DILocation(line: 606, column: 13, scope: !182)
!185 = !DILocation(line: 606, column: 16, scope: !186)
!186 = !DILexicalBlockFile(scope: !182, file: !1, discriminator: 1)
!187 = !DILocation(line: 606, column: 19, scope: !186)
!188 = !DILocation(line: 606, column: 6, scope: !186)
!189 = !DILocation(line: 607, column: 5, scope: !190)
!190 = distinct !DILexicalBlock(scope: !182, file: !1, line: 606, column: 24)
!191 = !DILocation(line: 609, column: 16, scope: !60)
!192 = !DILocation(line: 609, column: 25, scope: !60)
!193 = !DILocation(line: 609, column: 24, scope: !60)
!194 = !DILocation(line: 609, column: 35, scope: !60)
!195 = !DILocation(line: 609, column: 34, scope: !60)
!196 = !DILocation(line: 609, column: 45, scope: !60)
!197 = !DILocation(line: 609, column: 44, scope: !60)
!198 = !DILocation(line: 609, column: 55, scope: !60)
!199 = !DILocation(line: 609, column: 54, scope: !60)
!200 = !DILocation(line: 609, column: 65, scope: !60)
!201 = !DILocation(line: 609, column: 64, scope: !60)
!202 = !DILocation(line: 609, column: 14, scope: !60)
!203 = !DILocation(line: 610, column: 14, scope: !60)
!204 = !DILocation(line: 610, column: 8, scope: !60)
!205 = !DILocation(line: 610, column: 6, scope: !60)
!206 = !DILocation(line: 611, column: 11, scope: !60)
!207 = !DILocation(line: 611, column: 38, scope: !60)
!208 = !DILocation(line: 611, column: 3, scope: !60)
!209 = !DILocation(line: 615, column: 6, scope: !210)
!210 = distinct !DILexicalBlock(scope: !60, file: !1, line: 615, column: 6)
!211 = !DILocation(line: 615, column: 6, scope: !60)
!212 = !DILocation(line: 615, column: 17, scope: !213)
!213 = !DILexicalBlockFile(scope: !214, file: !1, discriminator: 1)
!214 = distinct !DILexicalBlock(scope: !210, file: !1, line: 615, column: 9)
!215 = !DILocation(line: 615, column: 10, scope: !213)
!216 = !DILocation(line: 615, column: 21, scope: !213)
!217 = !DILocation(line: 616, column: 6, scope: !218)
!218 = distinct !DILexicalBlock(scope: !60, file: !1, line: 616, column: 6)
!219 = !DILocation(line: 616, column: 6, scope: !60)
!220 = !DILocation(line: 617, column: 10, scope: !221)
!221 = distinct !DILexicalBlock(scope: !218, file: !1, line: 616, column: 15)
!222 = !DILocation(line: 617, column: 5, scope: !221)
!223 = !DILocation(line: 618, column: 13, scope: !221)
!224 = !DILocation(line: 619, column: 3, scope: !221)
!225 = !DILocation(line: 620, column: 3, scope: !60)
!226 = !DILocation(line: 621, column: 55, scope: !60)
!227 = !DILocation(line: 621, column: 3, scope: !60)
!228 = !DILocation(line: 622, column: 3, scope: !60)
!229 = !DILocation(line: 623, column: 56, scope: !60)
!230 = !DILocation(line: 623, column: 3, scope: !60)
!231 = !DILocation(line: 624, column: 57, scope: !60)
!232 = !DILocation(line: 624, column: 3, scope: !60)
!233 = !DILocation(line: 625, column: 57, scope: !60)
!234 = !DILocation(line: 625, column: 3, scope: !60)
!235 = !DILocation(line: 626, column: 57, scope: !60)
!236 = !DILocation(line: 626, column: 3, scope: !60)
!237 = !DILocation(line: 627, column: 57, scope: !60)
!238 = !DILocation(line: 627, column: 3, scope: !60)
!239 = !DILocation(line: 628, column: 58, scope: !60)
!240 = !DILocation(line: 628, column: 3, scope: !60)
!241 = !DILocation(line: 632, column: 3, scope: !60)
!242 = !DILocation(line: 633, column: 3, scope: !60)
!243 = !DILocation(line: 634, column: 1, scope: !60)
!244 = !DILocalVariable(name: "fname", arg: 1, scope: !90, file: !1, line: 259, type: !68)
!245 = !DILocation(line: 259, column: 32, scope: !90)
!246 = !DILocalVariable(name: "mode", arg: 2, scope: !90, file: !1, line: 259, type: !68)
!247 = !DILocation(line: 259, column: 51, scope: !90)
!248 = !DILocalVariable(name: "fp", scope: !90, file: !1, line: 260, type: !93)
!249 = !DILocation(line: 260, column: 9, scope: !90)
!250 = !DILocation(line: 261, column: 14, scope: !90)
!251 = !DILocation(line: 261, column: 20, scope: !90)
!252 = !DILocation(line: 261, column: 8, scope: !90)
!253 = !DILocation(line: 261, column: 6, scope: !90)
!254 = !DILocation(line: 262, column: 7, scope: !255)
!255 = distinct !DILexicalBlock(scope: !90, file: !1, line: 262, column: 7)
!256 = !DILocation(line: 262, column: 10, scope: !255)
!257 = !DILocation(line: 262, column: 7, scope: !90)
!258 = !DILocation(line: 263, column: 50, scope: !259)
!259 = distinct !DILexicalBlock(scope: !255, file: !1, line: 262, column: 18)
!260 = !DILocation(line: 263, column: 5, scope: !259)
!261 = !DILocation(line: 264, column: 5, scope: !259)
!262 = !DILocation(line: 266, column: 10, scope: !90)
!263 = !DILocation(line: 266, column: 3, scope: !90)
!264 = !DILocalVariable(name: "fp", scope: !64, file: !1, line: 653, type: !93)
!265 = !DILocation(line: 653, column: 9, scope: !64)
!266 = !DILocalVariable(name: "totalFiCount", scope: !64, file: !1, line: 654, type: !40)
!267 = !DILocation(line: 654, column: 13, scope: !64)
!268 = !DILocation(line: 655, column: 6, scope: !269)
!269 = distinct !DILexicalBlock(scope: !64, file: !1, line: 655, column: 6)
!270 = !DILocation(line: 655, column: 9, scope: !269)
!271 = !DILocation(line: 655, column: 13, scope: !269)
!272 = !DILocation(line: 655, column: 16, scope: !273)
!273 = !DILexicalBlockFile(scope: !269, file: !1, discriminator: 1)
!274 = !DILocation(line: 655, column: 19, scope: !273)
!275 = !DILocation(line: 655, column: 6, scope: !273)
!276 = !DILocation(line: 656, column: 5, scope: !277)
!277 = distinct !DILexicalBlock(scope: !269, file: !1, line: 655, column: 24)
!278 = !DILocation(line: 658, column: 18, scope: !64)
!279 = !DILocation(line: 658, column: 27, scope: !64)
!280 = !DILocation(line: 658, column: 26, scope: !64)
!281 = !DILocation(line: 658, column: 37, scope: !64)
!282 = !DILocation(line: 658, column: 36, scope: !64)
!283 = !DILocation(line: 658, column: 47, scope: !64)
!284 = !DILocation(line: 658, column: 46, scope: !64)
!285 = !DILocation(line: 658, column: 57, scope: !64)
!286 = !DILocation(line: 658, column: 56, scope: !64)
!287 = !DILocation(line: 658, column: 67, scope: !64)
!288 = !DILocation(line: 658, column: 66, scope: !64)
!289 = !DILocation(line: 658, column: 16, scope: !64)
!290 = !DILocation(line: 659, column: 14, scope: !64)
!291 = !DILocation(line: 659, column: 8, scope: !64)
!292 = !DILocation(line: 659, column: 6, scope: !64)
!293 = !DILocation(line: 660, column: 11, scope: !64)
!294 = !DILocation(line: 660, column: 43, scope: !64)
!295 = !DILocation(line: 660, column: 3, scope: !64)
!296 = !DILocation(line: 661, column: 11, scope: !64)
!297 = !DILocation(line: 661, column: 32, scope: !64)
!298 = !DILocation(line: 661, column: 3, scope: !64)
!299 = !DILocation(line: 662, column: 11, scope: !64)
!300 = !DILocation(line: 662, column: 45, scope: !64)
!301 = !DILocation(line: 662, column: 3, scope: !64)
!302 = !DILocation(line: 663, column: 6, scope: !303)
!303 = distinct !DILexicalBlock(scope: !64, file: !1, line: 663, column: 6)
!304 = !DILocation(line: 663, column: 6, scope: !64)
!305 = !DILocation(line: 663, column: 17, scope: !306)
!306 = !DILexicalBlockFile(scope: !307, file: !1, discriminator: 1)
!307 = distinct !DILexicalBlock(scope: !303, file: !1, line: 663, column: 9)
!308 = !DILocation(line: 663, column: 10, scope: !306)
!309 = !DILocation(line: 663, column: 21, scope: !306)
!310 = !DILocation(line: 664, column: 6, scope: !311)
!311 = distinct !DILexicalBlock(scope: !64, file: !1, line: 664, column: 6)
!312 = !DILocation(line: 664, column: 6, scope: !64)
!313 = !DILocation(line: 665, column: 10, scope: !314)
!314 = distinct !DILexicalBlock(scope: !311, file: !1, line: 664, column: 15)
!315 = !DILocation(line: 665, column: 5, scope: !314)
!316 = !DILocation(line: 666, column: 13, scope: !314)
!317 = !DILocation(line: 667, column: 3, scope: !314)
!318 = !DILocation(line: 668, column: 3, scope: !64)
!319 = !DILocation(line: 669, column: 53, scope: !64)
!320 = !DILocation(line: 669, column: 3, scope: !64)
!321 = !DILocation(line: 670, column: 3, scope: !64)
!322 = !DILocation(line: 671, column: 68, scope: !64)
!323 = !DILocation(line: 671, column: 3, scope: !64)
!324 = !DILocation(line: 672, column: 69, scope: !64)
!325 = !DILocation(line: 672, column: 3, scope: !64)
!326 = !DILocation(line: 673, column: 69, scope: !64)
!327 = !DILocation(line: 673, column: 3, scope: !64)
!328 = !DILocation(line: 674, column: 69, scope: !64)
!329 = !DILocation(line: 674, column: 3, scope: !64)
!330 = !DILocation(line: 675, column: 69, scope: !64)
!331 = !DILocation(line: 675, column: 3, scope: !64)
!332 = !DILocation(line: 676, column: 70, scope: !64)
!333 = !DILocation(line: 676, column: 3, scope: !64)
!334 = !DILocation(line: 677, column: 48, scope: !64)
!335 = !DILocation(line: 677, column: 3, scope: !64)
!336 = !DILocation(line: 681, column: 3, scope: !64)
!337 = !DILocation(line: 682, column: 3, scope: !64)
!338 = !DILocation(line: 683, column: 1, scope: !64)
!339 = !DILocalVariable(name: "data", arg: 1, scope: !65, file: !1, line: 686, type: !53)
!340 = !DILocation(line: 686, column: 31, scope: !65)
!341 = !DILocalVariable(name: "instrName", arg: 2, scope: !65, file: !1, line: 686, type: !68)
!342 = !DILocation(line: 686, column: 49, scope: !65)
!343 = !DILocalVariable(name: "__mask", arg: 3, scope: !65, file: !1, line: 686, type: !53)
!344 = !DILocation(line: 686, column: 64, scope: !65)
!345 = !DILocation(line: 688, column: 7, scope: !346)
!346 = distinct !DILexicalBlock(scope: !65, file: !1, line: 688, column: 6)
!347 = !DILocation(line: 688, column: 6, scope: !65)
!348 = !DILocation(line: 689, column: 5, scope: !349)
!349 = distinct !DILexicalBlock(scope: !346, file: !1, line: 688, column: 20)
!350 = !DILocation(line: 690, column: 3, scope: !349)
!351 = !DILocalVariable(name: "datacp", scope: !65, file: !1, line: 694, type: !53)
!352 = !DILocation(line: 694, column: 7, scope: !65)
!353 = !DILocation(line: 694, column: 16, scope: !65)
!354 = !DILocalVariable(name: "bitPos", scope: !65, file: !1, line: 695, type: !53)
!355 = !DILocation(line: 695, column: 7, scope: !65)
!356 = !DILocation(line: 696, column: 17, scope: !357)
!357 = distinct !DILexicalBlock(scope: !65, file: !1, line: 696, column: 6)
!358 = !DILocation(line: 696, column: 7, scope: !357)
!359 = !DILocation(line: 696, column: 6, scope: !65)
!360 = !DILocation(line: 697, column: 12, scope: !361)
!361 = distinct !DILexicalBlock(scope: !357, file: !1, line: 696, column: 28)
!362 = !DILocation(line: 697, column: 5, scope: !361)
!363 = !DILocation(line: 700, column: 11, scope: !65)
!364 = !DILocation(line: 702, column: 6, scope: !365)
!365 = distinct !DILexicalBlock(scope: !65, file: !1, line: 702, column: 6)
!366 = !DILocation(line: 702, column: 9, scope: !365)
!367 = !DILocation(line: 702, column: 6, scope: !65)
!368 = !DILocation(line: 706, column: 12, scope: !369)
!369 = distinct !DILexicalBlock(scope: !365, file: !1, line: 702, column: 13)
!370 = !DILocation(line: 706, column: 5, scope: !369)
!371 = !DILocation(line: 711, column: 7, scope: !372)
!372 = distinct !DILexicalBlock(scope: !65, file: !1, line: 711, column: 6)
!373 = !DILocation(line: 711, column: 6, scope: !65)
!374 = !DILocation(line: 712, column: 12, scope: !375)
!375 = distinct !DILexicalBlock(scope: !372, file: !1, line: 711, column: 23)
!376 = !DILocation(line: 712, column: 5, scope: !375)
!377 = !DILocalVariable(name: "dt", scope: !65, file: !1, line: 715, type: !"_ZTS8DataType")
!378 = !DILocation(line: 715, column: 17, scope: !65)
!379 = !DILocation(line: 717, column: 27, scope: !65)
!380 = !DILocation(line: 717, column: 35, scope: !65)
!381 = !DILocation(line: 717, column: 38, scope: !65)
!382 = !DILocation(line: 717, column: 12, scope: !65)
!383 = !DILocation(line: 717, column: 10, scope: !65)
!384 = !DILocation(line: 719, column: 6, scope: !385)
!385 = distinct !DILexicalBlock(scope: !65, file: !1, line: 719, column: 6)
!386 = !DILocation(line: 719, column: 13, scope: !385)
!387 = !DILocation(line: 719, column: 6, scope: !65)
!388 = !DILocation(line: 720, column: 13, scope: !389)
!389 = distinct !DILexicalBlock(scope: !385, file: !1, line: 719, column: 18)
!390 = !DILocation(line: 721, column: 17, scope: !389)
!391 = !DILocation(line: 721, column: 34, scope: !389)
!392 = !DILocation(line: 721, column: 49, scope: !389)
!393 = !DILocation(line: 721, column: 55, scope: !389)
!394 = !DILocation(line: 721, column: 5, scope: !389)
!395 = !DILocation(line: 722, column: 3, scope: !389)
!396 = !DILocation(line: 723, column: 10, scope: !65)
!397 = !DILocation(line: 723, column: 3, scope: !65)
!398 = !DILocation(line: 724, column: 1, scope: !65)
!399 = !DILocalVariable(name: "line", scope: !96, file: !1, line: 372, type: !54)
!400 = !DILocation(line: 372, column: 10, scope: !96)
!401 = !DILocalVariable(name: "name", scope: !96, file: !1, line: 373, type: !54)
!402 = !DILocation(line: 373, column: 9, scope: !96)
!403 = !DILocalVariable(name: "value", scope: !96, file: !1, line: 373, type: !54)
!404 = !DILocation(line: 373, column: 15, scope: !96)
!405 = !DILocalVariable(name: "len", scope: !96, file: !1, line: 374, type: !406)
!406 = !DIDerivedType(tag: DW_TAG_typedef, name: "size_t", file: !407, line: 62, baseType: !408)
!407 = !DIFile(filename: "/usr/local/bin/../lib/clang/3.9.0/include/stddef.h", directory: "/home/vcsharma/apps/presage/examples/src/mm")
!408 = !DIBasicType(name: "long unsigned int", size: 64, align: 64, encoding: DW_ATE_unsigned)
!409 = !DILocation(line: 374, column: 10, scope: !96)
!410 = !DILocalVariable(name: "read", scope: !96, file: !1, line: 375, type: !411)
!411 = !DIDerivedType(tag: DW_TAG_typedef, name: "ssize_t", file: !95, line: 102, baseType: !412)
!412 = !DIDerivedType(tag: DW_TAG_typedef, name: "__ssize_t", file: !47, line: 172, baseType: !48)
!413 = !DILocation(line: 375, column: 11, scope: !96)
!414 = !DILocalVariable(name: "fp", scope: !96, file: !1, line: 376, type: !93)
!415 = !DILocation(line: 376, column: 9, scope: !96)
!416 = !DILocation(line: 379, column: 9, scope: !96)
!417 = !DILocation(line: 379, column: 3, scope: !418)
!418 = !DILexicalBlockFile(scope: !96, file: !1, discriminator: 1)
!419 = !DILocation(line: 383, column: 3, scope: !96)
!420 = !DILocation(line: 384, column: 14, scope: !96)
!421 = !DILocation(line: 384, column: 8, scope: !96)
!422 = !DILocation(line: 384, column: 6, scope: !96)
!423 = !DILocation(line: 385, column: 7, scope: !424)
!424 = distinct !DILexicalBlock(scope: !96, file: !1, line: 385, column: 7)
!425 = !DILocation(line: 385, column: 10, scope: !424)
!426 = !DILocation(line: 385, column: 7, scope: !96)
!427 = !DILocation(line: 386, column: 5, scope: !428)
!428 = distinct !DILexicalBlock(scope: !424, file: !1, line: 385, column: 18)
!429 = !DILocation(line: 387, column: 5, scope: !428)
!430 = !DILocation(line: 391, column: 3, scope: !96)
!431 = !DILocation(line: 391, column: 39, scope: !418)
!432 = !DILocation(line: 391, column: 18, scope: !418)
!433 = !DILocation(line: 391, column: 16, scope: !418)
!434 = !DILocation(line: 391, column: 44, scope: !418)
!435 = !DILocation(line: 391, column: 3, scope: !418)
!436 = !DILocation(line: 392, column: 31, scope: !437)
!437 = distinct !DILexicalBlock(scope: !96, file: !1, line: 391, column: 51)
!438 = !DILocation(line: 392, column: 12, scope: !437)
!439 = !DILocation(line: 392, column: 10, scope: !437)
!440 = !DILocation(line: 393, column: 32, scope: !437)
!441 = !DILocation(line: 393, column: 13, scope: !437)
!442 = !DILocation(line: 393, column: 11, scope: !437)
!443 = !DILocation(line: 394, column: 19, scope: !437)
!444 = !DILocation(line: 394, column: 24, scope: !437)
!445 = !DILocation(line: 394, column: 5, scope: !437)
!446 = !DILocation(line: 391, column: 3, scope: !447)
!447 = !DILexicalBlockFile(scope: !96, file: !1, discriminator: 2)
!448 = !DILocation(line: 397, column: 6, scope: !449)
!449 = distinct !DILexicalBlock(scope: !96, file: !1, line: 397, column: 6)
!450 = !DILocation(line: 397, column: 9, scope: !449)
!451 = !DILocation(line: 397, column: 6, scope: !96)
!452 = !DILocation(line: 399, column: 8, scope: !453)
!453 = distinct !DILexicalBlock(scope: !454, file: !1, line: 399, column: 8)
!454 = distinct !DILexicalBlock(scope: !449, file: !1, line: 397, column: 13)
!455 = !DILocation(line: 399, column: 10, scope: !453)
!456 = !DILocation(line: 399, column: 8, scope: !454)
!457 = !DILocation(line: 400, column: 16, scope: !458)
!458 = distinct !DILexicalBlock(scope: !453, file: !1, line: 399, column: 13)
!459 = !DILocation(line: 400, column: 14, scope: !458)
!460 = !DILocation(line: 401, column: 5, scope: !458)
!461 = !DILocation(line: 404, column: 8, scope: !462)
!462 = distinct !DILexicalBlock(scope: !454, file: !1, line: 404, column: 8)
!463 = !DILocation(line: 404, column: 18, scope: !462)
!464 = !DILocation(line: 404, column: 21, scope: !462)
!465 = !DILocation(line: 404, column: 24, scope: !466)
!466 = !DILexicalBlockFile(scope: !462, file: !1, discriminator: 1)
!467 = !DILocation(line: 404, column: 30, scope: !466)
!468 = !DILocation(line: 404, column: 8, scope: !466)
!469 = !DILocation(line: 405, column: 10, scope: !470)
!470 = distinct !DILexicalBlock(scope: !471, file: !1, line: 405, column: 10)
!471 = distinct !DILexicalBlock(scope: !462, file: !1, line: 404, column: 33)
!472 = !DILocation(line: 405, column: 21, scope: !470)
!473 = !DILocation(line: 405, column: 20, scope: !470)
!474 = !DILocation(line: 405, column: 27, scope: !470)
!475 = !DILocation(line: 405, column: 10, scope: !471)
!476 = !DILocation(line: 406, column: 14, scope: !477)
!477 = distinct !DILexicalBlock(scope: !470, file: !1, line: 405, column: 31)
!478 = !DILocation(line: 406, column: 25, scope: !477)
!479 = !DILocation(line: 406, column: 24, scope: !477)
!480 = !DILocation(line: 406, column: 12, scope: !477)
!481 = !DILocation(line: 407, column: 7, scope: !477)
!482 = !DILocation(line: 408, column: 20, scope: !483)
!483 = distinct !DILexicalBlock(scope: !470, file: !1, line: 407, column: 14)
!484 = !DILocation(line: 408, column: 31, scope: !483)
!485 = !DILocation(line: 408, column: 30, scope: !483)
!486 = !DILocation(line: 408, column: 14, scope: !483)
!487 = !DILocation(line: 408, column: 38, scope: !483)
!488 = !DILocation(line: 408, column: 12, scope: !483)
!489 = !DILocation(line: 410, column: 5, scope: !471)
!490 = !DILocation(line: 413, column: 9, scope: !491)
!491 = distinct !DILexicalBlock(scope: !454, file: !1, line: 413, column: 8)
!492 = !DILocation(line: 413, column: 8, scope: !454)
!493 = !DILocation(line: 414, column: 7, scope: !494)
!494 = distinct !DILexicalBlock(scope: !491, file: !1, line: 413, column: 22)
!495 = !DILocation(line: 415, column: 5, scope: !494)
!496 = !DILocation(line: 416, column: 8, scope: !497)
!497 = distinct !DILexicalBlock(scope: !454, file: !1, line: 416, column: 8)
!498 = !DILocation(line: 416, column: 16, scope: !497)
!499 = !DILocation(line: 416, column: 8, scope: !454)
!500 = !DILocation(line: 417, column: 7, scope: !501)
!501 = distinct !DILexicalBlock(scope: !497, file: !1, line: 416, column: 23)
!502 = !DILocation(line: 418, column: 7, scope: !501)
!503 = !DILocation(line: 420, column: 3, scope: !454)
!504 = !DILocalVariable(name: "instrfield", scope: !96, file: !1, line: 423, type: !68)
!505 = !DILocation(line: 423, column: 15, scope: !96)
!506 = !DILocalVariable(name: "originalVal", scope: !96, file: !1, line: 424, type: !68)
!507 = !DILocation(line: 424, column: 15, scope: !96)
!508 = !DILocalVariable(name: "corruptedVal", scope: !96, file: !1, line: 425, type: !68)
!509 = !DILocation(line: 425, column: 15, scope: !96)
!510 = !DILocalVariable(name: "bitPosVal", scope: !96, file: !1, line: 426, type: !68)
!511 = !DILocation(line: 426, column: 15, scope: !96)
!512 = !DILocation(line: 427, column: 19, scope: !513)
!513 = distinct !DILexicalBlock(scope: !96, file: !1, line: 427, column: 6)
!514 = !DILocation(line: 427, column: 7, scope: !513)
!515 = !DILocation(line: 427, column: 27, scope: !513)
!516 = !DILocation(line: 427, column: 30, scope: !517)
!517 = !DILexicalBlockFile(scope: !513, file: !1, discriminator: 1)
!518 = !DILocation(line: 427, column: 33, scope: !517)
!519 = !DILocation(line: 427, column: 6, scope: !517)
!520 = !DILocation(line: 428, column: 17, scope: !521)
!521 = distinct !DILexicalBlock(scope: !513, file: !1, line: 427, column: 37)
!522 = !DILocation(line: 428, column: 35, scope: !521)
!523 = !DILocation(line: 428, column: 54, scope: !521)
!524 = !DILocation(line: 428, column: 74, scope: !521)
!525 = !DILocation(line: 428, column: 5, scope: !521)
!526 = !DILocation(line: 429, column: 3, scope: !521)
!527 = !DILocation(line: 431, column: 3, scope: !96)
!528 = !DILocation(line: 433, column: 3, scope: !96)
!529 = !DILocation(line: 434, column: 15, scope: !96)
!530 = !DILocation(line: 435, column: 10, scope: !96)
!531 = !DILocation(line: 435, column: 3, scope: !96)
!532 = !DILocation(line: 436, column: 3, scope: !96)
!533 = !DILocalVariable(name: "a", arg: 1, scope: !115, file: !1, line: 104, type: !39)
!534 = !DILocation(line: 104, column: 28, scope: !115)
!535 = !DILocalVariable(name: "numbytes", arg: 2, scope: !115, file: !1, line: 104, type: !53)
!536 = !DILocation(line: 104, column: 35, scope: !115)
!537 = !DILocalVariable(name: "b", scope: !115, file: !1, line: 106, type: !40)
!538 = !DILocation(line: 106, column: 13, scope: !115)
!539 = !DILocalVariable(name: "bptr", scope: !115, file: !1, line: 107, type: !39)
!540 = !DILocation(line: 107, column: 9, scope: !115)
!541 = !DILocation(line: 107, column: 25, scope: !115)
!542 = !DILocation(line: 108, column: 17, scope: !115)
!543 = !DILocation(line: 108, column: 19, scope: !115)
!544 = !DILocation(line: 108, column: 24, scope: !115)
!545 = !DILocation(line: 108, column: 10, scope: !115)
!546 = !DILocation(line: 108, column: 33, scope: !115)
!547 = !DILocation(line: 108, column: 3, scope: !115)
!548 = !DILocalVariable(name: "idx", scope: !118, file: !1, line: 174, type: !53)
!549 = !DILocation(line: 174, column: 7, scope: !118)
!550 = !DILocalVariable(name: "base", scope: !118, file: !1, line: 174, type: !53)
!551 = !DILocation(line: 174, column: 11, scope: !118)
!552 = !DILocalVariable(name: "j", scope: !118, file: !1, line: 174, type: !53)
!553 = !DILocation(line: 174, column: 16, scope: !118)
!554 = !DILocation(line: 175, column: 15, scope: !118)
!555 = !DILocation(line: 176, column: 24, scope: !118)
!556 = !DILocation(line: 176, column: 9, scope: !118)
!557 = !DILocation(line: 176, column: 7, scope: !118)
!558 = !DILocation(line: 179, column: 6, scope: !559)
!559 = distinct !DILexicalBlock(scope: !118, file: !1, line: 179, column: 6)
!560 = !DILocation(line: 179, column: 9, scope: !559)
!561 = !DILocation(line: 179, column: 12, scope: !559)
!562 = !DILocation(line: 179, column: 15, scope: !563)
!563 = !DILexicalBlockFile(scope: !559, file: !1, discriminator: 1)
!564 = !DILocation(line: 179, column: 22, scope: !563)
!565 = !DILocation(line: 179, column: 19, scope: !563)
!566 = !DILocation(line: 179, column: 6, scope: !563)
!567 = !DILocation(line: 180, column: 5, scope: !568)
!568 = distinct !DILexicalBlock(scope: !559, file: !1, line: 179, column: 32)
!569 = !DILocation(line: 183, column: 11, scope: !118)
!570 = !DILocation(line: 183, column: 15, scope: !118)
!571 = !DILocation(line: 183, column: 14, scope: !118)
!572 = !DILocation(line: 183, column: 10, scope: !118)
!573 = !DILocation(line: 183, column: 8, scope: !118)
!574 = !DILocation(line: 184, column: 8, scope: !575)
!575 = distinct !DILexicalBlock(scope: !118, file: !1, line: 184, column: 3)
!576 = !DILocation(line: 184, column: 7, scope: !575)
!577 = !DILocation(line: 184, column: 11, scope: !578)
!578 = !DILexicalBlockFile(scope: !579, file: !1, discriminator: 1)
!579 = distinct !DILexicalBlock(scope: !575, file: !1, line: 184, column: 3)
!580 = !DILocation(line: 184, column: 13, scope: !578)
!581 = !DILocation(line: 184, column: 12, scope: !578)
!582 = !DILocation(line: 184, column: 3, scope: !578)
!583 = !DILocation(line: 185, column: 17, scope: !584)
!584 = distinct !DILexicalBlock(scope: !585, file: !1, line: 185, column: 8)
!585 = distinct !DILexicalBlock(scope: !579, file: !1, line: 184, column: 20)
!586 = !DILocation(line: 185, column: 22, scope: !584)
!587 = !DILocation(line: 185, column: 21, scope: !584)
!588 = !DILocation(line: 185, column: 8, scope: !584)
!589 = !DILocation(line: 185, column: 26, scope: !584)
!590 = !DILocation(line: 185, column: 24, scope: !584)
!591 = !DILocation(line: 185, column: 8, scope: !585)
!592 = !DILocation(line: 186, column: 7, scope: !593)
!593 = distinct !DILexicalBlock(scope: !584, file: !1, line: 185, column: 39)
!594 = !DILocation(line: 188, column: 3, scope: !585)
!595 = !DILocation(line: 184, column: 17, scope: !596)
!596 = !DILexicalBlockFile(scope: !579, file: !1, discriminator: 2)
!597 = !DILocation(line: 184, column: 3, scope: !596)
!598 = !DILocation(line: 189, column: 3, scope: !118)
!599 = !DILocation(line: 190, column: 1, scope: !118)
!600 = !DILocalVariable(name: "data", arg: 1, scope: !122, file: !1, line: 569, type: !39)
!601 = !DILocation(line: 569, column: 26, scope: !122)
!602 = !DILocalVariable(name: "bytesz", arg: 2, scope: !122, file: !1, line: 570, type: !125)
!603 = !DILocation(line: 570, column: 15, scope: !122)
!604 = !DILocalVariable(name: "dt", arg: 3, scope: !122, file: !1, line: 571, type: !"_ZTS8DataType")
!605 = !DILocation(line: 571, column: 20, scope: !122)
!606 = !DILocalVariable(name: "fia", arg: 4, scope: !122, file: !1, line: 572, type: !"_ZTS6FIAlgo")
!607 = !DILocation(line: 572, column: 18, scope: !122)
!608 = !DILocalVariable(name: "dest", scope: !122, file: !1, line: 573, type: !40)
!609 = !DILocation(line: 573, column: 13, scope: !122)
!610 = !DILocalVariable(name: "bitPos", scope: !122, file: !1, line: 574, type: !40)
!611 = !DILocation(line: 574, column: 13, scope: !122)
!612 = !DILocation(line: 577, column: 6, scope: !613)
!613 = distinct !DILexicalBlock(scope: !122, file: !1, line: 577, column: 6)
!614 = !DILocation(line: 577, column: 9, scope: !613)
!615 = !DILocation(line: 577, column: 6, scope: !122)
!616 = !DILocation(line: 578, column: 11, scope: !617)
!617 = distinct !DILexicalBlock(scope: !613, file: !1, line: 577, column: 19)
!618 = !DILocation(line: 579, column: 3, scope: !617)
!619 = !DILocation(line: 580, column: 24, scope: !620)
!620 = distinct !DILexicalBlock(scope: !613, file: !1, line: 579, column: 10)
!621 = !DILocation(line: 580, column: 31, scope: !620)
!622 = !DILocation(line: 580, column: 34, scope: !620)
!623 = !DILocation(line: 580, column: 14, scope: !620)
!624 = !DILocation(line: 580, column: 12, scope: !620)
!625 = !DILocation(line: 584, column: 17, scope: !122)
!626 = !DILocation(line: 584, column: 23, scope: !122)
!627 = !DILocation(line: 584, column: 28, scope: !122)
!628 = !DILocation(line: 584, column: 3, scope: !122)
!629 = !DILocation(line: 586, column: 8, scope: !630)
!630 = distinct !DILexicalBlock(scope: !122, file: !1, line: 586, column: 7)
!631 = !DILocation(line: 586, column: 14, scope: !630)
!632 = !DILocation(line: 586, column: 12, scope: !630)
!633 = !DILocation(line: 586, column: 21, scope: !630)
!634 = !DILocation(line: 586, column: 7, scope: !630)
!635 = !DILocation(line: 586, column: 7, scope: !122)
!636 = !DILocation(line: 587, column: 12, scope: !637)
!637 = distinct !DILexicalBlock(scope: !630, file: !1, line: 586, column: 26)
!638 = !DILocation(line: 587, column: 41, scope: !637)
!639 = !DILocation(line: 587, column: 37, scope: !637)
!640 = !DILocation(line: 587, column: 20, scope: !637)
!641 = !DILocation(line: 587, column: 17, scope: !637)
!642 = !DILocation(line: 587, column: 10, scope: !637)
!643 = !DILocation(line: 588, column: 3, scope: !637)
!644 = !DILocation(line: 589, column: 12, scope: !645)
!645 = distinct !DILexicalBlock(scope: !630, file: !1, line: 588, column: 9)
!646 = !DILocation(line: 589, column: 41, scope: !645)
!647 = !DILocation(line: 589, column: 37, scope: !645)
!648 = !DILocation(line: 589, column: 17, scope: !645)
!649 = !DILocation(line: 589, column: 10, scope: !645)
!650 = !DILocation(line: 593, column: 10, scope: !122)
!651 = !DILocation(line: 593, column: 22, scope: !122)
!652 = !DILocation(line: 593, column: 28, scope: !122)
!653 = !DILocation(line: 593, column: 3, scope: !122)
!654 = !DILocation(line: 595, column: 10, scope: !122)
!655 = !DILocation(line: 595, column: 3, scope: !122)
!656 = !DILocalVariable(name: "name", arg: 1, scope: !135, file: !1, line: 203, type: !68)
!657 = !DILocation(line: 203, column: 37, scope: !135)
!658 = !DILocalVariable(name: "d", arg: 2, scope: !135, file: !1, line: 203, type: !39)
!659 = !DILocation(line: 203, column: 49, scope: !135)
!660 = !DILocalVariable(name: "dc", arg: 3, scope: !135, file: !1, line: 203, type: !39)
!661 = !DILocation(line: 203, column: 58, scope: !135)
!662 = !DILocalVariable(name: "bitPos", arg: 4, scope: !135, file: !1, line: 203, type: !39)
!663 = !DILocation(line: 203, column: 68, scope: !135)
!664 = !DILocalVariable(name: "dt", arg: 5, scope: !135, file: !1, line: 203, type: !"_ZTS8DataType")
!665 = !DILocation(line: 203, column: 90, scope: !135)
!666 = !DILocalVariable(name: "mode", arg: 6, scope: !135, file: !1, line: 203, type: !68)
!667 = !DILocation(line: 203, column: 106, scope: !135)
!668 = !DILocalVariable(name: "ft", scope: !135, file: !1, line: 204, type: !93)
!669 = !DILocation(line: 204, column: 9, scope: !135)
!670 = !DILocation(line: 204, column: 20, scope: !135)
!671 = !DILocation(line: 204, column: 27, scope: !135)
!672 = !DILocation(line: 204, column: 14, scope: !135)
!673 = !DILocalVariable(name: "instrName", scope: !135, file: !1, line: 205, type: !674)
!674 = !DICompositeType(tag: DW_TAG_array_type, baseType: !55, size: 8192, align: 8, elements: !675)
!675 = !{!676}
!676 = !DISubrange(count: 1024)
!677 = !DILocation(line: 205, column: 8, scope: !135)
!678 = !DILocalVariable(name: "len", scope: !135, file: !1, line: 206, type: !125)
!679 = !DILocation(line: 206, column: 12, scope: !135)
!680 = !DILocation(line: 206, column: 25, scope: !135)
!681 = !DILocation(line: 206, column: 18, scope: !135)
!682 = !DILocation(line: 209, column: 6, scope: !683)
!683 = distinct !DILexicalBlock(scope: !135, file: !1, line: 209, column: 6)
!684 = !DILocation(line: 209, column: 9, scope: !683)
!685 = !DILocation(line: 209, column: 6, scope: !135)
!686 = !DILocation(line: 210, column: 13, scope: !687)
!687 = distinct !DILexicalBlock(scope: !683, file: !1, line: 209, column: 21)
!688 = !DILocation(line: 210, column: 5, scope: !687)
!689 = !DILocation(line: 211, column: 3, scope: !687)
!690 = !DILocation(line: 212, column: 13, scope: !691)
!691 = distinct !DILexicalBlock(scope: !683, file: !1, line: 211, column: 10)
!692 = !DILocation(line: 212, column: 23, scope: !691)
!693 = !DILocation(line: 212, column: 5, scope: !691)
!694 = !DILocation(line: 216, column: 10, scope: !135)
!695 = !DILocation(line: 216, column: 3, scope: !135)
!696 = !DILocation(line: 217, column: 11, scope: !135)
!697 = !DILocation(line: 217, column: 20, scope: !135)
!698 = !DILocation(line: 217, column: 23, scope: !135)
!699 = !DILocation(line: 217, column: 28, scope: !135)
!700 = !DILocation(line: 217, column: 3, scope: !135)
!701 = !DILocation(line: 218, column: 10, scope: !135)
!702 = !DILocation(line: 218, column: 20, scope: !135)
!703 = !DILocation(line: 218, column: 19, scope: !135)
!704 = !DILocation(line: 218, column: 3, scope: !135)
!705 = !DILocation(line: 219, column: 11, scope: !135)
!706 = !DILocation(line: 219, column: 20, scope: !135)
!707 = !DILocation(line: 219, column: 3, scope: !135)
!708 = !DILocation(line: 222, column: 6, scope: !709)
!709 = distinct !DILexicalBlock(scope: !135, file: !1, line: 222, column: 6)
!710 = !DILocation(line: 222, column: 9, scope: !709)
!711 = !DILocation(line: 222, column: 20, scope: !709)
!712 = !DILocation(line: 223, column: 6, scope: !709)
!713 = !DILocation(line: 223, column: 9, scope: !709)
!714 = !DILocation(line: 223, column: 20, scope: !709)
!715 = !DILocation(line: 224, column: 6, scope: !709)
!716 = !DILocation(line: 224, column: 9, scope: !709)
!717 = !DILocation(line: 222, column: 6, scope: !718)
!718 = !DILexicalBlockFile(scope: !135, file: !1, discriminator: 1)
!719 = !DILocation(line: 225, column: 13, scope: !720)
!720 = distinct !DILexicalBlock(scope: !709, file: !1, line: 224, column: 20)
!721 = !DILocation(line: 225, column: 30, scope: !720)
!722 = !DILocation(line: 225, column: 24, scope: !720)
!723 = !DILocation(line: 225, column: 22, scope: !720)
!724 = !DILocation(line: 225, column: 5, scope: !720)
!725 = !DILocation(line: 226, column: 13, scope: !720)
!726 = !DILocation(line: 226, column: 30, scope: !720)
!727 = !DILocation(line: 226, column: 24, scope: !720)
!728 = !DILocation(line: 226, column: 22, scope: !720)
!729 = !DILocation(line: 226, column: 5, scope: !720)
!730 = !DILocation(line: 228, column: 3, scope: !720)
!731 = !DILocation(line: 228, column: 14, scope: !732)
!732 = !DILexicalBlockFile(scope: !733, file: !1, discriminator: 1)
!733 = distinct !DILexicalBlock(scope: !709, file: !1, line: 228, column: 14)
!734 = !DILocation(line: 228, column: 17, scope: !732)
!735 = !DILocation(line: 229, column: 13, scope: !736)
!736 = distinct !DILexicalBlock(scope: !733, file: !1, line: 228, column: 27)
!737 = !DILocation(line: 229, column: 31, scope: !736)
!738 = !DILocation(line: 229, column: 22, scope: !736)
!739 = !DILocation(line: 229, column: 5, scope: !736)
!740 = !DILocation(line: 230, column: 13, scope: !736)
!741 = !DILocation(line: 230, column: 31, scope: !736)
!742 = !DILocation(line: 230, column: 22, scope: !736)
!743 = !DILocation(line: 230, column: 5, scope: !736)
!744 = !DILocation(line: 232, column: 3, scope: !736)
!745 = !DILocation(line: 232, column: 13, scope: !746)
!746 = !DILexicalBlockFile(scope: !747, file: !1, discriminator: 1)
!747 = distinct !DILexicalBlock(scope: !733, file: !1, line: 232, column: 13)
!748 = !DILocation(line: 232, column: 16, scope: !746)
!749 = !DILocation(line: 233, column: 13, scope: !750)
!750 = distinct !DILexicalBlock(scope: !747, file: !1, line: 232, column: 27)
!751 = !DILocation(line: 233, column: 38, scope: !750)
!752 = !DILocation(line: 233, column: 26, scope: !750)
!753 = !DILocation(line: 233, column: 24, scope: !750)
!754 = !DILocation(line: 233, column: 5, scope: !750)
!755 = !DILocation(line: 234, column: 13, scope: !750)
!756 = !DILocation(line: 234, column: 38, scope: !750)
!757 = !DILocation(line: 234, column: 26, scope: !750)
!758 = !DILocation(line: 234, column: 24, scope: !750)
!759 = !DILocation(line: 234, column: 5, scope: !750)
!760 = !DILocation(line: 236, column: 3, scope: !750)
!761 = !DILocation(line: 236, column: 13, scope: !762)
!762 = !DILexicalBlockFile(scope: !763, file: !1, discriminator: 1)
!763 = distinct !DILexicalBlock(scope: !747, file: !1, line: 236, column: 13)
!764 = !DILocation(line: 236, column: 16, scope: !762)
!765 = !DILocation(line: 237, column: 13, scope: !766)
!766 = distinct !DILexicalBlock(scope: !763, file: !1, line: 236, column: 27)
!767 = !DILocation(line: 237, column: 32, scope: !766)
!768 = !DILocation(line: 237, column: 24, scope: !766)
!769 = !DILocation(line: 237, column: 22, scope: !766)
!770 = !DILocation(line: 237, column: 5, scope: !766)
!771 = !DILocation(line: 238, column: 13, scope: !766)
!772 = !DILocation(line: 238, column: 32, scope: !766)
!773 = !DILocation(line: 238, column: 24, scope: !766)
!774 = !DILocation(line: 238, column: 22, scope: !766)
!775 = !DILocation(line: 238, column: 5, scope: !766)
!776 = !DILocation(line: 240, column: 3, scope: !766)
!777 = !DILocation(line: 240, column: 13, scope: !778)
!778 = !DILexicalBlockFile(scope: !779, file: !1, discriminator: 1)
!779 = distinct !DILexicalBlock(scope: !763, file: !1, line: 240, column: 13)
!780 = !DILocation(line: 240, column: 16, scope: !778)
!781 = !DILocation(line: 241, column: 13, scope: !782)
!782 = distinct !DILexicalBlock(scope: !779, file: !1, line: 240, column: 28)
!783 = !DILocation(line: 241, column: 34, scope: !782)
!784 = !DILocation(line: 241, column: 25, scope: !782)
!785 = !DILocation(line: 241, column: 23, scope: !782)
!786 = !DILocation(line: 241, column: 5, scope: !782)
!787 = !DILocation(line: 242, column: 13, scope: !782)
!788 = !DILocation(line: 242, column: 34, scope: !782)
!789 = !DILocation(line: 242, column: 25, scope: !782)
!790 = !DILocation(line: 242, column: 23, scope: !782)
!791 = !DILocation(line: 242, column: 5, scope: !782)
!792 = !DILocation(line: 244, column: 3, scope: !782)
!793 = !DILocation(line: 244, column: 13, scope: !794)
!794 = !DILexicalBlockFile(scope: !795, file: !1, discriminator: 1)
!795 = distinct !DILexicalBlock(scope: !779, file: !1, line: 244, column: 13)
!796 = !DILocation(line: 244, column: 16, scope: !794)
!797 = !DILocation(line: 245, column: 13, scope: !798)
!798 = distinct !DILexicalBlock(scope: !795, file: !1, line: 244, column: 28)
!799 = !DILocation(line: 245, column: 29, scope: !798)
!800 = !DILocation(line: 245, column: 5, scope: !798)
!801 = !DILocation(line: 246, column: 13, scope: !798)
!802 = !DILocation(line: 246, column: 29, scope: !798)
!803 = !DILocation(line: 246, column: 5, scope: !798)
!804 = !DILocation(line: 247, column: 3, scope: !798)
!805 = !DILocation(line: 250, column: 6, scope: !806)
!806 = distinct !DILexicalBlock(scope: !135, file: !1, line: 250, column: 6)
!807 = !DILocation(line: 250, column: 9, scope: !806)
!808 = !DILocation(line: 250, column: 6, scope: !135)
!809 = !DILocation(line: 251, column: 13, scope: !810)
!810 = distinct !DILexicalBlock(scope: !806, file: !1, line: 250, column: 21)
!811 = !DILocation(line: 251, column: 30, scope: !810)
!812 = !DILocation(line: 251, column: 5, scope: !810)
!813 = !DILocation(line: 252, column: 3, scope: !810)
!814 = !DILocation(line: 253, column: 13, scope: !815)
!815 = distinct !DILexicalBlock(scope: !806, file: !1, line: 252, column: 10)
!816 = !DILocation(line: 253, column: 31, scope: !815)
!817 = !DILocation(line: 253, column: 25, scope: !815)
!818 = !DILocation(line: 253, column: 23, scope: !815)
!819 = !DILocation(line: 253, column: 5, scope: !815)
!820 = !DILocation(line: 255, column: 6, scope: !821)
!821 = distinct !DILexicalBlock(scope: !135, file: !1, line: 255, column: 6)
!822 = !DILocation(line: 255, column: 6, scope: !135)
!823 = !DILocation(line: 255, column: 17, scope: !824)
!824 = !DILexicalBlockFile(scope: !825, file: !1, discriminator: 1)
!825 = distinct !DILexicalBlock(scope: !821, file: !1, line: 255, column: 9)
!826 = !DILocation(line: 255, column: 10, scope: !824)
!827 = !DILocation(line: 255, column: 21, scope: !824)
!828 = !DILocation(line: 256, column: 1, scope: !135)
!829 = !DILocalVariable(name: "bytesz", arg: 1, scope: !126, file: !1, line: 545, type: !125)
!830 = !DILocation(line: 545, column: 31, scope: !126)
!831 = !DILocalVariable(name: "dt", arg: 2, scope: !126, file: !1, line: 546, type: !"_ZTS8DataType")
!832 = !DILocation(line: 546, column: 22, scope: !126)
!833 = !DILocalVariable(name: "fia", arg: 3, scope: !126, file: !1, line: 547, type: !"_ZTS6FIAlgo")
!834 = !DILocation(line: 547, column: 20, scope: !126)
!835 = !DILocalVariable(name: "corruptBitPos", scope: !126, file: !1, line: 549, type: !53)
!836 = !DILocation(line: 549, column: 7, scope: !126)
!837 = !DILocation(line: 550, column: 10, scope: !126)
!838 = !DILocation(line: 550, column: 3, scope: !126)
!839 = !DILocation(line: 552, column: 34, scope: !840)
!840 = distinct !DILexicalBlock(scope: !126, file: !1, line: 550, column: 14)
!841 = !DILocation(line: 552, column: 21, scope: !840)
!842 = !DILocation(line: 552, column: 19, scope: !840)
!843 = !DILocation(line: 553, column: 5, scope: !840)
!844 = !DILocation(line: 555, column: 34, scope: !840)
!845 = !DILocation(line: 555, column: 21, scope: !840)
!846 = !DILocation(line: 555, column: 19, scope: !840)
!847 = !DILocation(line: 556, column: 5, scope: !840)
!848 = !DILocation(line: 558, column: 22, scope: !840)
!849 = !DILocation(line: 558, column: 28, scope: !840)
!850 = !DILocation(line: 558, column: 31, scope: !840)
!851 = !DILocation(line: 558, column: 19, scope: !840)
!852 = !DILocation(line: 559, column: 5, scope: !840)
!853 = !DILocation(line: 561, column: 5, scope: !840)
!854 = !DILocation(line: 562, column: 5, scope: !840)
!855 = !DILocation(line: 565, column: 10, scope: !126)
!856 = !DILocation(line: 565, column: 3, scope: !126)
!857 = !DILocalVariable(name: "bytesz", arg: 1, scope: !129, file: !1, line: 478, type: !125)
!858 = !DILocation(line: 478, column: 34, scope: !129)
!859 = !DILocalVariable(name: "totalBits", scope: !129, file: !1, line: 479, type: !125)
!860 = !DILocation(line: 479, column: 12, scope: !129)
!861 = !DILocation(line: 479, column: 24, scope: !129)
!862 = !DILocation(line: 479, column: 30, scope: !129)
!863 = !DILocalVariable(name: "startBitPos", scope: !129, file: !1, line: 480, type: !53)
!864 = !DILocation(line: 480, column: 7, scope: !129)
!865 = !DILocalVariable(name: "endBitPos", scope: !129, file: !1, line: 480, type: !53)
!866 = !DILocation(line: 480, column: 22, scope: !129)
!867 = !DILocalVariable(name: "corruptBitPos", scope: !129, file: !1, line: 481, type: !53)
!868 = !DILocation(line: 481, column: 7, scope: !129)
!869 = !DILocation(line: 484, column: 6, scope: !870)
!870 = distinct !DILexicalBlock(scope: !129, file: !1, line: 484, column: 6)
!871 = !DILocation(line: 484, column: 10, scope: !870)
!872 = !DILocation(line: 484, column: 6, scope: !129)
!873 = !DILocation(line: 486, column: 20, scope: !874)
!874 = distinct !DILexicalBlock(scope: !870, file: !1, line: 484, column: 21)
!875 = !DILocation(line: 486, column: 26, scope: !874)
!876 = !DILocation(line: 486, column: 29, scope: !874)
!877 = !DILocation(line: 486, column: 17, scope: !874)
!878 = !DILocation(line: 489, column: 8, scope: !879)
!879 = distinct !DILexicalBlock(scope: !874, file: !1, line: 489, column: 8)
!880 = !DILocation(line: 489, column: 16, scope: !879)
!881 = !DILocation(line: 489, column: 13, scope: !879)
!882 = !DILocation(line: 489, column: 8, scope: !874)
!883 = !DILocation(line: 490, column: 20, scope: !884)
!884 = distinct !DILexicalBlock(scope: !879, file: !1, line: 489, column: 23)
!885 = !DILocation(line: 490, column: 27, scope: !884)
!886 = !DILocation(line: 490, column: 26, scope: !884)
!887 = !DILocation(line: 490, column: 32, scope: !884)
!888 = !DILocation(line: 490, column: 17, scope: !884)
!889 = !DILocation(line: 491, column: 5, scope: !884)
!890 = !DILocation(line: 492, column: 17, scope: !891)
!891 = distinct !DILexicalBlock(scope: !879, file: !1, line: 491, column: 11)
!892 = !DILocation(line: 494, column: 3, scope: !874)
!893 = !DILocation(line: 496, column: 17, scope: !894)
!894 = distinct !DILexicalBlock(scope: !870, file: !1, line: 494, column: 9)
!895 = !DILocation(line: 498, column: 8, scope: !896)
!896 = distinct !DILexicalBlock(scope: !894, file: !1, line: 498, column: 8)
!897 = !DILocation(line: 498, column: 16, scope: !896)
!898 = !DILocation(line: 498, column: 13, scope: !896)
!899 = !DILocation(line: 498, column: 8, scope: !894)
!900 = !DILocation(line: 499, column: 20, scope: !901)
!901 = distinct !DILexicalBlock(scope: !896, file: !1, line: 498, column: 23)
!902 = !DILocation(line: 499, column: 24, scope: !901)
!903 = !DILocation(line: 499, column: 27, scope: !901)
!904 = !DILocation(line: 499, column: 17, scope: !901)
!905 = !DILocation(line: 500, column: 5, scope: !901)
!906 = !DILocation(line: 501, column: 20, scope: !907)
!907 = distinct !DILexicalBlock(scope: !896, file: !1, line: 500, column: 11)
!908 = !DILocation(line: 501, column: 26, scope: !907)
!909 = !DILocation(line: 501, column: 29, scope: !907)
!910 = !DILocation(line: 501, column: 17, scope: !907)
!911 = !DILocation(line: 505, column: 6, scope: !912)
!912 = distinct !DILexicalBlock(scope: !129, file: !1, line: 505, column: 6)
!913 = !DILocation(line: 505, column: 6, scope: !129)
!914 = !DILocation(line: 506, column: 21, scope: !915)
!915 = distinct !DILexicalBlock(scope: !912, file: !1, line: 505, column: 10)
!916 = !DILocation(line: 506, column: 35, scope: !915)
!917 = !DILocation(line: 506, column: 47, scope: !915)
!918 = !DILocation(line: 506, column: 59, scope: !915)
!919 = !DILocation(line: 506, column: 58, scope: !915)
!920 = !DILocation(line: 506, column: 43, scope: !921)
!921 = !DILexicalBlockFile(scope: !915, file: !1, discriminator: 1)
!922 = !DILocation(line: 506, column: 69, scope: !915)
!923 = !DILocation(line: 506, column: 41, scope: !915)
!924 = !DILocation(line: 506, column: 33, scope: !915)
!925 = !DILocation(line: 506, column: 19, scope: !915)
!926 = !DILocation(line: 507, column: 3, scope: !915)
!927 = !DILocation(line: 508, column: 21, scope: !928)
!928 = distinct !DILexicalBlock(scope: !912, file: !1, line: 507, column: 10)
!929 = !DILocation(line: 508, column: 35, scope: !928)
!930 = !DILocation(line: 508, column: 47, scope: !928)
!931 = !DILocation(line: 508, column: 59, scope: !928)
!932 = !DILocation(line: 508, column: 58, scope: !928)
!933 = !DILocation(line: 508, column: 43, scope: !934)
!934 = !DILexicalBlockFile(scope: !928, file: !1, discriminator: 1)
!935 = !DILocation(line: 508, column: 69, scope: !928)
!936 = !DILocation(line: 508, column: 41, scope: !928)
!937 = !DILocation(line: 508, column: 33, scope: !928)
!938 = !DILocation(line: 508, column: 19, scope: !928)
!939 = !DILocation(line: 510, column: 10, scope: !129)
!940 = !DILocation(line: 510, column: 3, scope: !129)
!941 = !DILocalVariable(name: "dt", arg: 1, scope: !132, file: !1, line: 514, type: !"_ZTS8DataType")
!942 = !DILocation(line: 514, column: 39, scope: !132)
!943 = !DILocalVariable(name: "lsBitPos", scope: !132, file: !1, line: 515, type: !53)
!944 = !DILocation(line: 515, column: 7, scope: !132)
!945 = !DILocalVariable(name: "msBitPos", scope: !132, file: !1, line: 515, type: !53)
!946 = !DILocation(line: 515, column: 19, scope: !132)
!947 = !DILocalVariable(name: "maxBitPos", scope: !132, file: !1, line: 516, type: !53)
!948 = !DILocation(line: 516, column: 7, scope: !132)
!949 = !DILocalVariable(name: "minBitPos", scope: !132, file: !1, line: 516, type: !53)
!950 = !DILocation(line: 516, column: 20, scope: !132)
!951 = !DILocalVariable(name: "corruptBitPos", scope: !132, file: !1, line: 517, type: !53)
!952 = !DILocation(line: 517, column: 7, scope: !132)
!953 = !DILocation(line: 519, column: 6, scope: !954)
!954 = distinct !DILexicalBlock(scope: !132, file: !1, line: 519, column: 6)
!955 = !DILocation(line: 519, column: 8, scope: !954)
!956 = !DILocation(line: 519, column: 6, scope: !132)
!957 = !DILocation(line: 520, column: 14, scope: !958)
!958 = distinct !DILexicalBlock(scope: !954, file: !1, line: 519, column: 17)
!959 = !DILocation(line: 521, column: 3, scope: !958)
!960 = !DILocation(line: 521, column: 13, scope: !961)
!961 = !DILexicalBlockFile(scope: !962, file: !1, discriminator: 1)
!962 = distinct !DILexicalBlock(scope: !954, file: !1, line: 521, column: 13)
!963 = !DILocation(line: 521, column: 15, scope: !961)
!964 = !DILocation(line: 522, column: 14, scope: !965)
!965 = distinct !DILexicalBlock(scope: !962, file: !1, line: 521, column: 25)
!966 = !DILocation(line: 523, column: 3, scope: !965)
!967 = !DILocation(line: 523, column: 13, scope: !968)
!968 = !DILexicalBlockFile(scope: !969, file: !1, discriminator: 1)
!969 = distinct !DILexicalBlock(scope: !962, file: !1, line: 523, column: 13)
!970 = !DILocation(line: 523, column: 15, scope: !968)
!971 = !DILocation(line: 524, column: 14, scope: !972)
!972 = distinct !DILexicalBlock(scope: !969, file: !1, line: 523, column: 25)
!973 = !DILocation(line: 525, column: 3, scope: !972)
!974 = !DILocation(line: 525, column: 13, scope: !975)
!975 = !DILexicalBlockFile(scope: !976, file: !1, discriminator: 1)
!976 = distinct !DILexicalBlock(scope: !969, file: !1, line: 525, column: 13)
!977 = !DILocation(line: 525, column: 15, scope: !975)
!978 = !DILocation(line: 526, column: 14, scope: !979)
!979 = distinct !DILexicalBlock(scope: !976, file: !1, line: 525, column: 25)
!980 = !DILocation(line: 527, column: 3, scope: !979)
!981 = !DILocation(line: 527, column: 13, scope: !982)
!982 = !DILexicalBlockFile(scope: !983, file: !1, discriminator: 1)
!983 = distinct !DILexicalBlock(scope: !976, file: !1, line: 527, column: 13)
!984 = !DILocation(line: 527, column: 15, scope: !982)
!985 = !DILocation(line: 528, column: 14, scope: !986)
!986 = distinct !DILexicalBlock(scope: !983, file: !1, line: 527, column: 25)
!987 = !DILocation(line: 529, column: 3, scope: !986)
!988 = !DILocation(line: 529, column: 13, scope: !989)
!989 = !DILexicalBlockFile(scope: !990, file: !1, discriminator: 1)
!990 = distinct !DILexicalBlock(scope: !983, file: !1, line: 529, column: 13)
!991 = !DILocation(line: 529, column: 15, scope: !989)
!992 = !DILocation(line: 530, column: 14, scope: !993)
!993 = distinct !DILexicalBlock(scope: !990, file: !1, line: 529, column: 26)
!994 = !DILocation(line: 531, column: 3, scope: !993)
!995 = !DILocation(line: 533, column: 6, scope: !996)
!996 = distinct !DILexicalBlock(scope: !132, file: !1, line: 533, column: 6)
!997 = !DILocation(line: 533, column: 10, scope: !996)
!998 = !DILocation(line: 533, column: 8, scope: !996)
!999 = !DILocation(line: 533, column: 20, scope: !996)
!1000 = !DILocation(line: 533, column: 23, scope: !1001)
!1001 = !DILexicalBlockFile(scope: !996, file: !1, discriminator: 1)
!1002 = !DILocation(line: 533, column: 27, scope: !1001)
!1003 = !DILocation(line: 533, column: 25, scope: !1001)
!1004 = !DILocation(line: 533, column: 6, scope: !1001)
!1005 = !DILocation(line: 534, column: 14, scope: !1006)
!1006 = distinct !DILexicalBlock(scope: !996, file: !1, line: 533, column: 37)
!1007 = !DILocation(line: 534, column: 13, scope: !1006)
!1008 = !DILocation(line: 535, column: 14, scope: !1006)
!1009 = !DILocation(line: 535, column: 13, scope: !1006)
!1010 = !DILocation(line: 536, column: 3, scope: !1006)
!1011 = !DILocation(line: 537, column: 14, scope: !1012)
!1012 = distinct !DILexicalBlock(scope: !996, file: !1, line: 536, column: 10)
!1013 = !DILocation(line: 537, column: 13, scope: !1012)
!1014 = !DILocation(line: 538, column: 14, scope: !1012)
!1015 = !DILocation(line: 538, column: 13, scope: !1012)
!1016 = !DILocation(line: 540, column: 19, scope: !132)
!1017 = !DILocation(line: 540, column: 30, scope: !132)
!1018 = !DILocation(line: 540, column: 42, scope: !132)
!1019 = !DILocation(line: 540, column: 51, scope: !132)
!1020 = !DILocation(line: 540, column: 50, scope: !132)
!1021 = !DILocation(line: 540, column: 38, scope: !1022)
!1022 = !DILexicalBlockFile(scope: !132, file: !1, discriminator: 1)
!1023 = !DILocation(line: 540, column: 60, scope: !132)
!1024 = !DILocation(line: 540, column: 36, scope: !132)
!1025 = !DILocation(line: 540, column: 28, scope: !132)
!1026 = !DILocation(line: 540, column: 17, scope: !132)
!1027 = !DILocation(line: 541, column: 10, scope: !132)
!1028 = !DILocation(line: 541, column: 3, scope: !132)
!1029 = !DILocalVariable(name: "fsIdx", arg: 1, scope: !119, file: !1, line: 166, type: !40)
!1030 = !DILocation(line: 166, column: 37, scope: !119)
!1031 = !DILocation(line: 167, column: 6, scope: !1032)
!1032 = distinct !DILexicalBlock(scope: !119, file: !1, line: 167, column: 6)
!1033 = !DILocation(line: 167, column: 12, scope: !1032)
!1034 = !DILocation(line: 167, column: 6, scope: !119)
!1035 = !DILocation(line: 168, column: 5, scope: !1036)
!1036 = distinct !DILexicalBlock(scope: !1032, file: !1, line: 167, column: 16)
!1037 = !DILocation(line: 170, column: 16, scope: !119)
!1038 = !DILocation(line: 170, column: 22, scope: !119)
!1039 = !DILocation(line: 170, column: 21, scope: !119)
!1040 = !DILocation(line: 170, column: 10, scope: !119)
!1041 = !DILocation(line: 170, column: 3, scope: !119)
!1042 = !DILocation(line: 171, column: 1, scope: !119)
!1043 = !DILocalVariable(name: "tv", scope: !99, file: !1, line: 88, type: !"_ZTS7timeval")
!1044 = !DILocation(line: 88, column: 18, scope: !99)
!1045 = !DILocation(line: 89, column: 3, scope: !99)
!1046 = !DILocation(line: 90, column: 27, scope: !99)
!1047 = !DILocation(line: 90, column: 22, scope: !99)
!1048 = !DILocation(line: 90, column: 40, scope: !99)
!1049 = !DILocation(line: 90, column: 35, scope: !99)
!1050 = !DILocation(line: 90, column: 11, scope: !99)
!1051 = !DILocation(line: 91, column: 3, scope: !99)
!1052 = !DILocalVariable(name: "currentStr", arg: 1, scope: !100, file: !1, line: 270, type: !54)
!1053 = !DILocation(line: 270, column: 39, scope: !100)
!1054 = !DILocalVariable(name: "delim", arg: 2, scope: !100, file: !1, line: 270, type: !68)
!1055 = !DILocation(line: 270, column: 63, scope: !100)
!1056 = !DILocalVariable(name: "idx", arg: 3, scope: !100, file: !1, line: 270, type: !53)
!1057 = !DILocation(line: 270, column: 74, scope: !100)
!1058 = !DILocalVariable(name: "temp", scope: !100, file: !1, line: 271, type: !674)
!1059 = !DILocation(line: 271, column: 8, scope: !100)
!1060 = !DILocalVariable(name: "result", scope: !100, file: !1, line: 272, type: !54)
!1061 = !DILocation(line: 272, column: 9, scope: !100)
!1062 = !DILocalVariable(name: "i", scope: !100, file: !1, line: 273, type: !53)
!1063 = !DILocation(line: 273, column: 7, scope: !100)
!1064 = !DILocation(line: 274, column: 10, scope: !100)
!1065 = !DILocation(line: 274, column: 15, scope: !100)
!1066 = !DILocation(line: 274, column: 3, scope: !100)
!1067 = !DILocation(line: 275, column: 19, scope: !100)
!1068 = !DILocation(line: 275, column: 24, scope: !100)
!1069 = !DILocation(line: 275, column: 12, scope: !100)
!1070 = !DILocation(line: 275, column: 10, scope: !100)
!1071 = !DILocation(line: 276, column: 3, scope: !100)
!1072 = !DILocation(line: 276, column: 9, scope: !1073)
!1073 = !DILexicalBlockFile(scope: !100, file: !1, discriminator: 1)
!1074 = !DILocation(line: 276, column: 16, scope: !1073)
!1075 = !DILocation(line: 276, column: 3, scope: !1073)
!1076 = !DILocation(line: 277, column: 6, scope: !1077)
!1077 = distinct !DILexicalBlock(scope: !100, file: !1, line: 276, column: 24)
!1078 = !DILocation(line: 278, column: 8, scope: !1079)
!1079 = distinct !DILexicalBlock(scope: !1077, file: !1, line: 278, column: 8)
!1080 = !DILocation(line: 278, column: 15, scope: !1079)
!1081 = !DILocation(line: 278, column: 12, scope: !1079)
!1082 = !DILocation(line: 278, column: 8, scope: !1077)
!1083 = !DILocation(line: 279, column: 14, scope: !1084)
!1084 = distinct !DILexicalBlock(scope: !1079, file: !1, line: 278, column: 17)
!1085 = !DILocation(line: 279, column: 7, scope: !1084)
!1086 = !DILocation(line: 281, column: 26, scope: !1077)
!1087 = !DILocation(line: 281, column: 14, scope: !1077)
!1088 = !DILocation(line: 281, column: 12, scope: !1077)
!1089 = !DILocation(line: 276, column: 3, scope: !1090)
!1090 = !DILexicalBlockFile(scope: !100, file: !1, discriminator: 2)
!1091 = !DILocation(line: 283, column: 3, scope: !100)
!1092 = !DILocation(line: 284, column: 1, scope: !100)
!1093 = !DILocalVariable(name: "name", arg: 1, scope: !103, file: !1, line: 307, type: !68)
!1094 = !DILocation(line: 307, column: 39, scope: !103)
!1095 = !DILocalVariable(name: "value", arg: 2, scope: !103, file: !1, line: 307, type: !68)
!1096 = !DILocation(line: 307, column: 57, scope: !103)
!1097 = !DILocation(line: 308, column: 14, scope: !1098)
!1098 = distinct !DILexicalBlock(scope: !103, file: !1, line: 308, column: 6)
!1099 = !DILocation(line: 308, column: 7, scope: !1098)
!1100 = !DILocation(line: 308, column: 6, scope: !103)
!1101 = !DILocation(line: 309, column: 16, scope: !1102)
!1102 = distinct !DILexicalBlock(scope: !1103, file: !1, line: 309, column: 8)
!1103 = distinct !DILexicalBlock(scope: !1098, file: !1, line: 308, column: 26)
!1104 = !DILocation(line: 309, column: 9, scope: !1102)
!1105 = !DILocation(line: 309, column: 8, scope: !1103)
!1106 = !DILocation(line: 310, column: 13, scope: !1107)
!1107 = distinct !DILexicalBlock(scope: !1102, file: !1, line: 309, column: 29)
!1108 = !DILocation(line: 311, column: 5, scope: !1107)
!1109 = !DILocation(line: 311, column: 23, scope: !1110)
!1110 = !DILexicalBlockFile(scope: !1111, file: !1, discriminator: 1)
!1111 = distinct !DILexicalBlock(scope: !1102, file: !1, line: 311, column: 15)
!1112 = !DILocation(line: 311, column: 16, scope: !1110)
!1113 = !DILocation(line: 311, column: 15, scope: !1110)
!1114 = !DILocation(line: 312, column: 13, scope: !1115)
!1115 = distinct !DILexicalBlock(scope: !1111, file: !1, line: 311, column: 36)
!1116 = !DILocation(line: 313, column: 5, scope: !1115)
!1117 = !DILocation(line: 313, column: 23, scope: !1118)
!1118 = !DILexicalBlockFile(scope: !1119, file: !1, discriminator: 1)
!1119 = distinct !DILexicalBlock(scope: !1111, file: !1, line: 313, column: 15)
!1120 = !DILocation(line: 313, column: 16, scope: !1118)
!1121 = !DILocation(line: 313, column: 15, scope: !1118)
!1122 = !DILocation(line: 314, column: 13, scope: !1123)
!1123 = distinct !DILexicalBlock(scope: !1119, file: !1, line: 313, column: 36)
!1124 = !DILocation(line: 315, column: 5, scope: !1123)
!1125 = !DILocation(line: 316, column: 13, scope: !1126)
!1126 = distinct !DILexicalBlock(scope: !1119, file: !1, line: 315, column: 12)
!1127 = !DILocation(line: 318, column: 3, scope: !1103)
!1128 = !DILocation(line: 318, column: 21, scope: !1129)
!1129 = !DILexicalBlockFile(scope: !1130, file: !1, discriminator: 1)
!1130 = distinct !DILexicalBlock(scope: !1098, file: !1, line: 318, column: 13)
!1131 = !DILocation(line: 318, column: 14, scope: !1129)
!1132 = !DILocation(line: 318, column: 13, scope: !1129)
!1133 = !DILocation(line: 319, column: 16, scope: !1134)
!1134 = distinct !DILexicalBlock(scope: !1135, file: !1, line: 319, column: 8)
!1135 = distinct !DILexicalBlock(scope: !1130, file: !1, line: 318, column: 33)
!1136 = !DILocation(line: 319, column: 9, scope: !1134)
!1137 = !DILocation(line: 319, column: 8, scope: !1135)
!1138 = !DILocation(line: 320, column: 12, scope: !1139)
!1139 = distinct !DILexicalBlock(scope: !1134, file: !1, line: 319, column: 27)
!1140 = !DILocation(line: 321, column: 5, scope: !1139)
!1141 = !DILocation(line: 321, column: 23, scope: !1142)
!1142 = !DILexicalBlockFile(scope: !1143, file: !1, discriminator: 1)
!1143 = distinct !DILexicalBlock(scope: !1134, file: !1, line: 321, column: 15)
!1144 = !DILocation(line: 321, column: 16, scope: !1142)
!1145 = !DILocation(line: 321, column: 15, scope: !1142)
!1146 = !DILocation(line: 322, column: 12, scope: !1147)
!1147 = distinct !DILexicalBlock(scope: !1143, file: !1, line: 321, column: 34)
!1148 = !DILocation(line: 323, column: 5, scope: !1147)
!1149 = !DILocation(line: 323, column: 23, scope: !1150)
!1150 = !DILexicalBlockFile(scope: !1151, file: !1, discriminator: 1)
!1151 = distinct !DILexicalBlock(scope: !1143, file: !1, line: 323, column: 15)
!1152 = !DILocation(line: 323, column: 16, scope: !1150)
!1153 = !DILocation(line: 323, column: 15, scope: !1150)
!1154 = !DILocation(line: 324, column: 12, scope: !1155)
!1155 = distinct !DILexicalBlock(scope: !1151, file: !1, line: 323, column: 34)
!1156 = !DILocation(line: 325, column: 5, scope: !1155)
!1157 = !DILocation(line: 325, column: 23, scope: !1158)
!1158 = !DILexicalBlockFile(scope: !1159, file: !1, discriminator: 1)
